ccopy_reg
_reconstructor
p0
(cPegasosPredictor
PegasosPredictor
p1
c__builtin__
object
p2
Ntp3
Rp4
(dp5
S'_w'
p6
(ics475_types
FeatureVector
p7
(dp8
S'data'
p9
(dp10
I1
F0.9039956608208194
sI2
F0.3615982643283284
sI3
F0.18079913216416532
sI4
F0.18079913216416518
sI5
F0.36159826432832776
sI6
F0.36159826432832776
sI7
F0.1807991321641631
sI8
F0.18079913216416252
sI9
F0.36159826432832826
sI10
F0.18079913216416388
sI11
F0.18079913216416418
sI12
F0.18079913216416535
sI13
F0.18079913216416535
sI14
F0.3615982643283265
sI15
F0.1807991321641624
sI16
F0.18079913216416388
sI17
F0.18079913216416388
sI18
F0.1807991321641624
sI19
F0.1807991321641624
sI20
F0.18079913216416252
sI21
F0.9039956608208174
sI22
F0.1807991321641631
sI23
F0.9039956608208194
sI24
F0.36159826432832826
sI26
F0.18079913216416418
sI27
F0.18079913216416252
sI28
F0.1807991321641624
sI30
F0.18079913216416535
sI31
F0.18079913216416252
sI33
F0.18079913216416418
sI35
F0.18079913216416518
sI37
F0.1807991321641624
sI38
F0.18079913216416252
sI39
F0.18079913216416252
sI40
F0.1807991321641624
sI42
F0.18079913216416535
sI43
F0.18079913216416388
sI44
F0.18079913216416252
sI46
F0.18079913216416532
sI48
F0.18079913216416418
sI49
F0.1807991321641624
sI50
F0.18079913216416252
sI51
F0.3615982643283266
sI52
F0.1807991321641624
sI53
F0.1807991321641631
sI54
F0.18079913216416252
sI55
F0.1807991321641624
sI56
F0.1807991321641624
sI58
F0.18079913216416388
sI59
F0.18079913216416252
sI60
F0.3615982643283285
sI61
F0.18079913216416388
sI63
F0.1807991321641631
sI64
F0.18079913216416418
sI65
F0.1807991321641624
sI66
F0.36159826432832776
sI67
F0.3615982643283293
sI71
F0.1807991321641624
sI72
F0.18079913216416532
sI73
F0.3615982643283307
sI74
F0.1807991321641624
sI75
F0.1807991321641624
sI76
F0.18079913216416252
sI77
F0.3615982643283283
sI78
F0.1807991321641624
sI79
F0.18079913216416252
sI80
F0.3615982643283262
sI81
F0.1807991321641631
sI82
F0.18079913216416518
sI83
F0.3615982643283265
sI84
F0.18079913216416252
sI85
F0.18079913216416535
sI86
F0.18079913216416532
sI87
F0.9039956608208204
sI88
F0.36159826432832776
sI89
F0.1807991321641624
sI90
F0.9039956608208177
sI91
F0.18079913216416518
sI92
F0.1807991321641624
sI93
F0.18079913216416518
sI94
F0.1807991321641631
sI95
F0.18079913216416388
sI96
F0.18079913216416418
sI97
F0.1807991321641624
sI99
F0.18079913216416535
sI101
F0.18079913216416532
sI103
F0.18079913216416252
sI104
F0.1807991321641631
sI109
F0.18079913216416252
sI110
F0.18079913216416532
sI111
F0.18079913216416252
sI112
F0.18079913216416252
sI115
F0.18079913216416518
sI116
F0.18079913216416388
sI117
F0.18079913216416388
sI118
F0.9039956608208192
ssbsS'_lambda'
p11
F0.0001
sS'_numIter'
p12
I5
sS'_time'
p13
F55311.0
sb.