ccopy_reg
_reconstructor
p0
(cPegasosPredictor
PegasosPredictor
p1
c__builtin__
object
p2
Ntp3
Rp4
(dp5
S'_w'
p6
(ics475_types
FeatureVector
p7
(dp8
S'data'
p9
(dp10
I1
F0.8892050506846777
sI2
F0.17784101013693418
sI4
F0.1778410101369345
sI5
F0.177841010136934
sI6
F0.35568202027387125
sI8
F0.1778410101369366
sI9
F0.17784101013693418
sI10
F0.177841010136934
sI11
F0.17784101013693418
sI12
F0.1778410101369374
sI13
F0.177841010136934
sI14
F0.17784101013693418
sI15
F0.17784101013693418
sI16
F0.1778410101369366
sI17
F0.1778410101369374
sI18
F0.17784101013693418
sI19
F0.17784101013693418
sI20
F0.1778410101369345
sI21
F0.35568202027387086
sI22
F0.35568202027387114
sI23
F0.1778410101369345
sI24
F0.17784101013693418
sI26
F0.35568202027387125
sI27
F0.35568202027387397
sI28
F0.1778410101369345
sI29
F0.177841010136937
sI31
F0.17784101013693693
sI33
F0.17784101013693418
sI34
F0.35568202027387436
sI35
F0.1778410101369366
sI36
F0.17784101013693696
sI37
F0.35568202027387125
sI38
F0.177841010136937
sI39
F0.17784101013693418
sI40
F0.177841010136934
sI41
F0.1778410101369366
sI43
F0.17784101013693696
sI44
F0.1778410101369366
sI45
F0.1778410101369366
sI46
F0.177841010136934
sI47
F0.177841010136937
sI49
F0.17784101013693418
sI50
F0.17784101013693693
sI51
F0.17784101013693693
sI52
F0.17784101013693418
sI54
F0.1778410101369366
sI55
F0.3556820202738713
sI56
F0.17784101013693418
sI57
F0.1778410101369374
sI59
F0.17784101013693418
sI60
F0.35568202027387075
sI61
F0.35568202027387125
sI62
F0.1778410101369345
sI64
F0.1778410101369374
sI65
F0.3556820202738685
sI66
F0.3556820202738713
sI70
F0.17784101013693418
sI71
F0.17784101013693418
sI72
F0.17784101013693696
sI73
F0.1778410101369374
sI74
F0.17784101013693418
sI75
F0.17784101013693696
sI76
F0.35568202027387086
sI77
F0.3556820202738744
sI78
F0.1778410101369345
sI79
F0.35568202027387125
sI80
F0.35568202027387075
sI81
F0.17784101013693418
sI82
F0.1778410101369366
sI83
F0.35568202027387086
sI84
F0.177841010136934
sI85
F0.1778410101369345
sI86
F0.35568202027387186
sI87
F1.0670460608216195
sI88
F0.35568202027387125
sI89
F0.17784101013693418
sI90
F0.35568202027387125
sI91
F0.1778410101369366
sI92
F0.17784101013693418
sI93
F0.1778410101369366
sI94
F0.177841010136937
sI95
F0.17784101013693696
sI97
F0.17784101013693418
sI98
F0.1778410101369366
sI99
F0.1778410101369366
sI102
F0.177841010136937
sI104
F0.17784101013693693
sI105
F0.1778410101369366
sI107
F0.17784101013693693
sI109
F0.1778410101369345
sI110
F0.35568202027387125
sI111
F0.1778410101369345
sI112
F0.1778410101369374
sI113
F0.177841010136934
sI115
F0.1778410101369374
sI116
F0.1778410101369366
sI117
F0.35568202027387075
sI118
F0.8892050506846788
ssbsS'_lambda'
p11
F0.0001
sS'_numIter'
p12
I5
sS'_time'
p13
F56231.0
sb.