ccopy_reg
_reconstructor
p0
(cAdaBoost
AdaBoostPredictor
p1
c__builtin__
object
p2
Ntp3
Rp4
(dp5
S'_H'
p6
(dp7
I1
(dp8
I280
(lp9
F0.5
aI0
aI1
aI1
assI2
(dp10
I274
(lp11
F0.5
aI1
aI0
aI2
assI3
(dp12
I281
(lp13
F0.5
aI0
aI1
aI3
assI4
(dp14
sI5
(dp15
I205
(lp16
F0.5
aI1
aI1
aI5
assI6
(dp17
I196
(lp18
F0.5
aI1
aI0
aI6
assI7
(dp19
I280
(lp20
F0.5
aI0
aI1
aI7
assI8
(dp21
sI9
(dp22
I220
(lp23
F0.5
aI1
aI1
aI9
assI10
(dp24
I216
(lp25
F0.5
aI1
aI0
aI10
assI11
(dp26
I279
(lp27
F0.5
aI0
aI1
aI11
assI12
(dp28
I278
(lp29
F0.5
aI1
aI1
aI12
assI13
(dp30
I258
(lp31
F0.5
aI0
aI1
aI13
assI14
(dp32
I257
(lp33
F0.5
aI0
aI1
aI14
assI15
(dp34
I257
(lp35
F0.5
aI0
aI1
aI15
assI16
(dp36
I276
(lp37
F0.5
aI0
aI1
aI16
assI17
(dp38
I254
(lp39
F0.5
aI1
aI1
aI17
assI18
(dp40
I247
(lp41
F0.5
aI0
aI1
aI18
assI19
(dp42
I266
(lp43
F0.5
aI1
aI0
aI19
assI20
(dp44
I262
(lp45
F0.5
aI1
aI0
aI20
assI21
(dp46
I198
(lp47
F0.5
aI1
aI0
aI21
assI22
(dp48
I201
(lp49
F0.5
aI0
aI1
aI22
assI23
(dp50
I259
(lp51
F0.5
aI1
aI1
aI23
assI24
(dp52
I260
(lp53
F0.5
aI1
aI0
aI24
assI25
(dp54
I282
(lp55
F0.5
aI1
aI1
aI25
assI26
(dp56
I281
(lp57
F0.5
aI0
aI1
aI26
assI27
(dp58
I278
(lp59
F0.5
aI0
aI1
aI27
assI28
(dp60
I277
(lp61
F0.5
aI0
aI1
aI28
assI29
(dp62
sI30
(dp63
sI31
(dp64
I281
(lp65
F0.5
aI1
aI1
aI31
assI32
(dp66
I281
(lp67
F0.5
aI0
aI1
aI32
assI33
(dp68
I240
(lp69
F0.5
aI1
aI0
aI33
assI34
(dp70
I250
(lp71
F0.5
aI0
aI1
aI34
assI35
(dp72
I269
(lp73
F0.5
aI0
aI1
aI35
assI36
(dp74
I266
(lp75
F0.5
aI1
aI0
aI36
assI37
(dp76
I237
(lp77
F0.5
aI1
aI0
aI37
assI38
(dp78
I234
(lp79
F0.5
aI0
aI1
aI38
assI39
(dp80
I266
(lp81
F0.5
aI1
aI0
aI39
assI40
(dp82
I265
(lp83
F0.5
aI0
aI1
aI40
assI41
(dp84
sI42
(dp85
sI43
(dp86
I249
(lp87
F0.5
aI0
aI1
aI43
assI44
(dp88
I265
(lp89
F0.5
aI0
aI1
aI44
assI45
(dp90
I256
(lp91
F0.5
aI1
aI0
aI45
assI46
(dp92
I255
(lp93
F0.5
aI0
aI1
aI46
assI47
(dp94
I282
(lp95
F0.5
aI1
aI1
aI47
assI48
(dp96
I280
(lp97
F0.5
aI1
aI1
aI48
assI49
(dp98
I247
(lp99
F0.5
aI0
aI1
aI49
assI50
(dp100
I256
(lp101
F0.5
aI1
aI1
aI50
assI51
(dp102
I268
(lp103
F0.5
aI1
aI1
aI51
assI52
(dp104
I274
(lp105
F0.5
aI0
aI1
aI52
assI53
(dp106
I280
(lp107
F0.5
aI0
aI1
aI53
assI54
(dp108
sI55
(dp109
I272
(lp110
F0.5
aI1
aI0
aI55
assI56
(dp111
I274
(lp112
F0.5
aI1
aI1
aI56
assI57
(dp113
I278
(lp114
F0.5
aI1
aI1
aI57
assI58
(dp115
I276
(lp116
F0.5
aI0
aI1
aI58
assI59
(dp117
I205
(lp118
F0.5
aI1
aI1
aI59
assI60
(dp119
I192
(lp120
F0.5
aI0
aI1
aI60
assI61
(dp121
I242
(lp122
F0.5
aI1
aI0
aI61
assI62
(dp123
I252
(lp124
F0.5
aI0
aI1
aI62
assI63
(dp125
I263
(lp126
F0.5
aI0
aI1
aI63
assI64
(dp127
I249
(lp128
F0.5
aI0
aI1
aI64
assI65
(dp129
I177
(lp130
F0.5
aI0
aI1
aI65
assI66
(dp131
I192
(lp132
F0.5
aI1
aI0
aI66
assI67
(dp133
I282
(lp134
F0.5
aI1
aI1
aI67
assI68
(dp135
I280
(lp136
F0.5
aI1
aI1
aI68
assI69
(dp137
I259
(lp138
F0.5
aI0
aI1
aI69
assI70
(dp139
I269
(lp140
F0.5
aI1
aI1
aI70
assI71
(dp141
I278
(lp142
F0.5
aI0
aI1
aI71
assI72
(dp143
I271
(lp144
F0.5
aI0
aI1
aI72
assI73
(dp145
I241
(lp146
F0.5
aI1
aI0
aI73
assI74
(dp147
I228
(lp148
F0.5
aI0
aI1
aI74
assI75
(dp149
I281
(lp150
F0.5
aI0
aI1
aI75
assI76
(dp151
I280
(lp152
F0.5
aI0
aI1
aI76
assI77
(dp153
I265
(lp154
F0.5
aI1
aI1
aI77
assI78
(dp155
I269
(lp156
F0.5
aI1
aI1
aI78
assI79
(dp157
I231
(lp158
F0.5
aI1
aI1
aI79
assI80
(dp159
I237
(lp160
F0.5
aI1
aI1
aI80
assI81
(dp161
I250
(lp162
F0.5
aI0
aI1
aI81
assI82
(dp163
I245
(lp164
F0.5
aI0
aI1
aI82
assI83
(dp165
I276
(lp166
F0.5
aI1
aI1
aI83
assI84
(dp167
I281
(lp168
F0.5
aI0
aI1
aI84
assI85
(dp169
I278
(lp170
F0.5
aI1
aI1
aI85
assI86
(dp171
I276
(lp172
F0.5
aI0
aI1
aI86
assI87
(dp173
I265
(lp174
F0.5
aI1
aI0
aI87
assI88
(dp175
I266
(lp176
F0.5
aI1
aI1
aI88
assI89
(dp177
I172
(lp178
F0.5
aI1
aI0
aI89
assI90
(dp179
I181
(lp180
F0.5
aI0
aI1
aI90
assI91
(dp181
I238
(lp182
F0.5
aI0
aI1
aI91
assI92
(dp183
I229
(lp184
F0.5
aI1
aI0
aI92
assI93
(dp185
I278
(lp186
F0.5
aI0
aI1
aI93
assI94
(dp187
I276
(lp188
F0.5
aI0
aI1
aI94
assI95
(dp189
I244
(lp190
F0.5
aI0
aI1
aI95
assI96
(dp191
I237
(lp192
F0.5
aI1
aI0
aI96
assI97
(dp193
I268
(lp194
F0.5
aI0
aI1
aI97
assI98
(dp195
I267
(lp196
F0.5
aI0
aI1
aI98
assI99
(dp197
I282
(lp198
F0.5
aI1
aI1
aI99
assI100
(dp199
I281
(lp200
F0.5
aI0
aI1
aI100
assI101
(dp201
sI102
(dp202
sI103
(dp203
I271
(lp204
F0.5
aI0
aI1
aI103
assI104
(dp205
I267
(lp206
F0.5
aI1
aI1
aI104
assI105
(dp207
sI106
(dp208
sI107
(dp209
I282
(lp210
F0.5
aI1
aI1
aI107
assI108
(dp211
sI109
(dp212
I278
(lp213
F0.5
aI1
aI0
aI109
assI110
(dp214
I273
(lp215
F0.5
aI0
aI1
aI110
assI111
(dp216
I229
(lp217
F0.5
aI0
aI1
aI111
assI112
(dp218
I234
(lp219
F0.5
aI1
aI1
aI112
assI113
(dp220
I281
(lp221
F0.5
aI0
aI1
aI113
assI114
(dp222
I278
(lp223
F0.5
aI0
aI1
aI114
assI115
(dp224
I267
(lp225
F0.5
aI1
aI1
aI115
assI116
(dp226
I266
(lp227
F0.5
aI0
aI1
aI116
assI117
(dp228
I245
(lp229
F0.5
aI0
aI1
aI117
assI118
(dp230
I241
(lp231
F0.5
aI0
aI1
aI118
asssS'_T'
p232
I10
sS'_D'
p233
(dp234
I0
F0.00353356890459365
sI1
F0.00353356890459365
sI2
F0.00353356890459365
sI3
F0.00353356890459365
sI4
F0.00353356890459365
sI5
F0.00353356890459365
sI6
F0.00353356890459365
sI7
F0.00353356890459365
sI8
F0.00353356890459365
sI9
F0.00353356890459365
sI10
F0.00353356890459365
sI11
F0.00353356890459365
sI12
F0.00353356890459365
sI13
F0.00353356890459365
sI14
F0.00353356890459365
sI15
F0.00353356890459365
sI16
F0.00353356890459365
sI17
F0.00353356890459365
sI18
F0.00353356890459365
sI19
F0.00353356890459365
sI20
F0.00353356890459365
sI21
F0.00353356890459365
sI22
F0.00353356890459365
sI23
F0.00353356890459365
sI24
F0.00353356890459365
sI25
F0.00353356890459365
sI26
F0.00353356890459365
sI27
F0.00353356890459365
sI28
F0.00353356890459365
sI29
F0.00353356890459365
sI30
F0.00353356890459365
sI31
F0.00353356890459365
sI32
F0.00353356890459365
sI33
F0.00353356890459365
sI34
F0.00353356890459365
sI35
F0.00353356890459365
sI36
F0.00353356890459365
sI37
F0.00353356890459365
sI38
F0.00353356890459365
sI39
F0.00353356890459365
sI40
F0.00353356890459365
sI41
F0.00353356890459365
sI42
F0.00353356890459365
sI43
F0.00353356890459365
sI44
F0.00353356890459365
sI45
F0.00353356890459365
sI46
F0.00353356890459365
sI47
F0.00353356890459365
sI48
F0.00353356890459365
sI49
F0.00353356890459365
sI50
F0.00353356890459365
sI51
F0.00353356890459365
sI52
F0.00353356890459365
sI53
F0.00353356890459365
sI54
F0.00353356890459365
sI55
F0.00353356890459365
sI56
F0.00353356890459365
sI57
F0.00353356890459365
sI58
F0.00353356890459365
sI59
F0.00353356890459365
sI60
F0.00353356890459365
sI61
F0.00353356890459365
sI62
F0.00353356890459365
sI63
F0.00353356890459365
sI64
F0.00353356890459365
sI65
F0.00353356890459365
sI66
F0.00353356890459365
sI67
F0.00353356890459365
sI68
F0.00353356890459365
sI69
F0.00353356890459365
sI70
F0.00353356890459365
sI71
F0.00353356890459365
sI72
F0.00353356890459365
sI73
F0.00353356890459365
sI74
F0.00353356890459365
sI75
F0.00353356890459365
sI76
F0.00353356890459365
sI77
F0.00353356890459365
sI78
F0.00353356890459365
sI79
F0.00353356890459365
sI80
F0.00353356890459365
sI81
F0.00353356890459365
sI82
F0.00353356890459365
sI83
F0.00353356890459365
sI84
F0.00353356890459365
sI85
F0.00353356890459365
sI86
F0.00353356890459365
sI87
F0.00353356890459365
sI88
F0.00353356890459365
sI89
F0.00353356890459365
sI90
F0.00353356890459365
sI91
F0.00353356890459365
sI92
F0.00353356890459365
sI93
F0.00353356890459365
sI94
F0.00353356890459365
sI95
F0.00353356890459365
sI96
F0.00353356890459365
sI97
F0.00353356890459365
sI98
F0.00353356890459365
sI99
F0.00353356890459365
sI100
F0.00353356890459365
sI101
F0.00353356890459365
sI102
F0.00353356890459365
sI103
F0.00353356890459365
sI104
F0.00353356890459365
sI105
F0.00353356890459365
sI106
F0.00353356890459365
sI107
F0.00353356890459365
sI108
F0.00353356890459365
sI109
F0.00353356890459365
sI110
F0.00353356890459365
sI111
F0.00353356890459365
sI112
F0.00353356890459365
sI113
F0.00353356890459365
sI114
F0.00353356890459365
sI115
F0.00353356890459365
sI116
F0.00353356890459365
sI117
F0.00353356890459365
sI118
F0.00353356890459365
sI119
F0.00353356890459365
sI120
F0.00353356890459365
sI121
F0.00353356890459365
sI122
F0.00353356890459365
sI123
F0.00353356890459365
sI124
F0.00353356890459365
sI125
F0.00353356890459365
sI126
F0.00353356890459365
sI127
F0.00353356890459365
sI128
F0.00353356890459365
sI129
F0.00353356890459365
sI130
F0.00353356890459365
sI131
F0.00353356890459365
sI132
F0.00353356890459365
sI133
F0.00353356890459365
sI134
F0.00353356890459365
sI135
F0.00353356890459365
sI136
F0.00353356890459365
sI137
F0.00353356890459365
sI138
F0.00353356890459365
sI139
F0.00353356890459365
sI140
F0.00353356890459365
sI141
F0.00353356890459365
sI142
F0.00353356890459365
sI143
F0.00353356890459365
sI144
F0.00353356890459365
sI145
F0.00353356890459365
sI146
F0.00353356890459365
sI147
F0.00353356890459365
sI148
F0.00353356890459365
sI149
F0.00353356890459365
sI150
F0.00353356890459365
sI151
F0.00353356890459365
sI152
F0.00353356890459365
sI153
F0.00353356890459365
sI154
F0.00353356890459365
sI155
F0.00353356890459365
sI156
F0.00353356890459365
sI157
F0.00353356890459365
sI158
F0.00353356890459365
sI159
F0.00353356890459365
sI160
F0.00353356890459365
sI161
F0.00353356890459365
sI162
F0.00353356890459365
sI163
F0.00353356890459365
sI164
F0.00353356890459365
sI165
F0.00353356890459365
sI166
F0.00353356890459365
sI167
F0.00353356890459365
sI168
F0.00353356890459365
sI169
F0.00353356890459365
sI170
F0.00353356890459365
sI171
F0.00353356890459365
sI172
F0.00353356890459365
sI173
F0.00353356890459365
sI174
F0.00353356890459365
sI175
F0.00353356890459365
sI176
F0.00353356890459365
sI177
F0.00353356890459365
sI178
F0.00353356890459365
sI179
F0.00353356890459365
sI180
F0.00353356890459365
sI181
F0.00353356890459365
sI182
F0.00353356890459365
sI183
F0.00353356890459365
sI184
F0.00353356890459365
sI185
F0.00353356890459365
sI186
F0.00353356890459365
sI187
F0.00353356890459365
sI188
F0.00353356890459365
sI189
F0.00353356890459365
sI190
F0.00353356890459365
sI191
F0.00353356890459365
sI192
F0.00353356890459365
sI193
F0.00353356890459365
sI194
F0.00353356890459365
sI195
F0.00353356890459365
sI196
F0.00353356890459365
sI197
F0.00353356890459365
sI198
F0.00353356890459365
sI199
F0.00353356890459365
sI200
F0.00353356890459365
sI201
F0.00353356890459365
sI202
F0.00353356890459365
sI203
F0.00353356890459365
sI204
F0.00353356890459365
sI205
F0.00353356890459365
sI206
F0.00353356890459365
sI207
F0.00353356890459365
sI208
F0.00353356890459365
sI209
F0.00353356890459365
sI210
F0.00353356890459365
sI211
F0.00353356890459365
sI212
F0.00353356890459365
sI213
F0.00353356890459365
sI214
F0.00353356890459365
sI215
F0.00353356890459365
sI216
F0.00353356890459365
sI217
F0.00353356890459365
sI218
F0.00353356890459365
sI219
F0.00353356890459365
sI220
F0.00353356890459365
sI221
F0.00353356890459365
sI222
F0.00353356890459365
sI223
F0.00353356890459365
sI224
F0.00353356890459365
sI225
F0.00353356890459365
sI226
F0.00353356890459365
sI227
F0.00353356890459365
sI228
F0.00353356890459365
sI229
F0.00353356890459365
sI230
F0.00353356890459365
sI231
F0.00353356890459365
sI232
F0.00353356890459365
sI233
F0.00353356890459365
sI234
F0.00353356890459365
sI235
F0.00353356890459365
sI236
F0.00353356890459365
sI237
F0.00353356890459365
sI238
F0.00353356890459365
sI239
F0.00353356890459365
sI240
F0.00353356890459365
sI241
F0.00353356890459365
sI242
F0.00353356890459365
sI243
F0.00353356890459365
sI244
F0.00353356890459365
sI245
F0.00353356890459365
sI246
F0.00353356890459365
sI247
F0.00353356890459365
sI248
F0.00353356890459365
sI249
F0.00353356890459365
sI250
F0.00353356890459365
sI251
F0.00353356890459365
sI252
F0.00353356890459365
sI253
F0.00353356890459365
sI254
F0.00353356890459365
sI255
F0.00353356890459365
sI256
F0.00353356890459365
sI257
F0.00353356890459365
sI258
F0.00353356890459365
sI259
F0.00353356890459365
sI260
F0.00353356890459365
sI261
F0.00353356890459365
sI262
F0.00353356890459365
sI263
F0.00353356890459365
sI264
F0.00353356890459365
sI265
F0.00353356890459365
sI266
F0.00353356890459365
sI267
F0.00353356890459365
sI268
F0.00353356890459365
sI269
F0.00353356890459365
sI270
F0.00353356890459365
sI271
F0.00353356890459365
sI272
F0.00353356890459365
sI273
F0.00353356890459365
sI274
F0.00353356890459365
sI275
F0.00353356890459365
sI276
F0.00353356890459365
sI277
F0.00353356890459365
sI278
F0.00353356890459365
sI279
F0.00353356890459365
sI280
F0.00353356890459365
sI281
F0.00353356890459365
sI282
F0.00353356890459365
ssS'_savedH'
p235
(dp236
I0
(lp237
F0.5
aI1
aI1
aI115
asI1
(lp238
F0.5
aI1
aI1
aI115
asI2
(lp239
F0.5
aI1
aI1
aI115
asI3
(lp240
F0.5
aI1
aI1
aI115
asI4
(lp241
F0.5
aI1
aI1
aI115
asI5
(lp242
F0.5
aI1
aI1
aI115
asI6
(lp243
F0.5
aI1
aI1
aI115
asI7
(lp244
F0.5
aI1
aI1
aI115
asI8
(lp245
F0.5
aI1
aI1
aI115
asI9
(lp246
F0.5
aI1
aI1
aI115
assS'_alphas'
p247
(dp248
I0
F0.01766968322265143
sI1
F0.017669683222651108
sI2
F0.017669683222650574
sI3
F0.01766968322264843
sI4
F0.01766968322264768
sI5
F0.01766968322264843
sI6
F0.01766968322264768
sI7
F0.01766968322264843
sI8
F0.017669683222650463
sI9
F0.017669683222650463
ssb.