ccopy_reg
_reconstructor
p0
(cKNNPredictor
KNNPredictor
p1
c__builtin__
object
p2
Ntp3
Rp4
(dp5
S'_data'
p6
(lp7
(ics475_types
Instance
p8
(dp9
S'_feature_vector'
p10
(ics475_types
FeatureVector
p11
(dp12
S'data'
p13
(dp14
I68
F1.0
sI78
F1.0
sI112
F1.0
sI115
F1.0
sI20
F1.0
sI117
F1.0
sI23
F1.0
sI89
F1.0
sI60
F1.0
sI63
F1.0
ssbsS'_label'
p15
g0
(ccs475_types
ClassificationLabel
p16
g2
Ntp17
Rp18
(dp19
g15
I1
sbsba(ics475_types
Instance
p20
(dp21
g10
(ics475_types
FeatureVector
p22
(dp23
g13
(dp24
I66
F1.0
sI69
F1.0
sI6
F1.0
sI104
F1.0
sI109
F1.0
sI79
F1.0
sI50
F1.0
sI21
F1.0
sI90
F1.0
sI59
F1.0
ssbsg15
g0
(g16
g2
Ntp25
Rp26
(dp27
g15
I1
sbsba(ics475_types
Instance
p28
(dp29
g10
(ics475_types
FeatureVector
p30
(dp31
g13
(dp32
I66
F1.0
sI9
F1.0
sI14
F1.0
sI111
F1.0
sI80
F1.0
sI115
F1.0
sI22
F1.0
sI89
F1.0
sI59
F1.0
sI92
F1.0
ssbsg15
g0
(g16
g2
Ntp33
Rp34
(dp35
g15
I1
sbsba(ics475_types
Instance
p36
(dp37
g10
(ics475_types
FeatureVector
p38
(dp39
g13
(dp40
I64
F1.0
sI65
F1.0
sI36
F1.0
sI5
F1.0
sI13
F1.0
sI78
F1.0
sI80
F1.0
sI81
F1.0
sI22
F1.0
sI91
F1.0
ssbsg15
g0
(g16
g2
Ntp41
Rp42
(dp43
g15
I1
sbsba(ics475_types
Instance
p44
(dp45
g10
(ics475_types
FeatureVector
p46
(dp47
g13
(dp48
I112
F1.0
sI66
F1.0
sI5
F1.0
sI104
F1.0
sI44
F1.0
sI80
F1.0
sI19
F1.0
sI21
F1.0
sI59
F1.0
sI95
F1.0
ssbsg15
g0
(g16
g2
Ntp49
Rp50
(dp51
g15
I1
sbsba(ics475_types
Instance
p52
(dp53
g10
(ics475_types
FeatureVector
p54
(dp55
g13
(dp56
I96
F1.0
sI33
F1.0
sI6
F1.0
sI65
F1.0
sI104
F1.0
sI77
F1.0
sI79
F1.0
sI20
F1.0
sI21
F1.0
sI60
F1.0
ssbsg15
g0
(g16
g2
Ntp57
Rp58
(dp59
g15
I1
sbsba(ics475_types
Instance
p60
(dp61
g10
(ics475_types
FeatureVector
p62
(dp63
g13
(dp64
I66
F1.0
sI36
F1.0
sI5
F1.0
sI38
F1.0
sI80
F1.0
sI83
F1.0
sI21
F1.0
sI89
F1.0
sI59
F1.0
sI92
F1.0
ssbsg15
g0
(g16
g2
Ntp65
Rp66
(dp67
g15
I1
sbsba(ics475_types
Instance
p68
(dp69
g10
(ics475_types
FeatureVector
p70
(dp71
g13
(dp72
I96
F1.0
sI37
F1.0
sI10
F1.0
sI19
F1.0
sI117
F1.0
sI22
F1.0
sI89
F1.0
sI59
F1.0
sI92
F1.0
sI74
F1.0
ssbsg15
g0
(g16
g2
Ntp73
Rp74
(dp75
g15
I1
sbsba(ics475_types
Instance
p76
(dp77
g10
(ics475_types
FeatureVector
p78
(dp79
g13
(dp80
I65
F1.0
sI10
F1.0
sI13
F1.0
sI77
F1.0
sI50
F1.0
sI22
F1.0
sI23
F1.0
sI90
F1.0
sI91
F1.0
sI74
F1.0
ssbsg15
g0
(g16
g2
Ntp81
Rp82
(dp83
g15
I-1
sbsba(ics475_types
Instance
p84
(dp85
g10
(ics475_types
FeatureVector
p86
(dp87
g13
(dp88
I66
F1.0
sI5
F1.0
sI73
F1.0
sI13
F1.0
sI116
F1.0
sI85
F1.0
sI22
F1.0
sI23
F1.0
sI90
F1.0
sI118
F1.0
ssbsg15
g0
(g16
g2
Ntp89
Rp90
(dp91
g15
I-1
sbsba(ics475_types
Instance
p92
(dp93
g10
(ics475_types
FeatureVector
p94
(dp95
g13
(dp96
I66
F1.0
sI6
F1.0
sI72
F1.0
sI9
F1.0
sI77
F1.0
sI73
F1.0
sI22
F1.0
sI23
F1.0
sI90
F1.0
sI79
F1.0
ssbsg15
g0
(g16
g2
Ntp97
Rp98
(dp99
g15
I-1
sbsba(ics475_types
Instance
p100
(dp101
g10
(ics475_types
FeatureVector
p102
(dp103
g13
(dp104
I33
F1.0
sI10
F1.0
sI78
F1.0
sI21
F1.0
sI24
F1.0
sI89
F1.0
sI91
F1.0
sI60
F1.0
sI94
F1.0
sI63
F1.0
ssbsg15
g0
(g16
g2
Ntp105
Rp106
(dp107
g15
I1
sbsba(ics475_types
Instance
p108
(dp109
g10
(ics475_types
FeatureVector
p110
(dp111
g13
(dp112
I65
F1.0
sI36
F1.0
sI6
F1.0
sI104
F1.0
sI9
F1.0
sI79
F1.0
sI21
F1.0
sI90
F1.0
sI91
F1.0
sI62
F1.0
ssbsg15
g0
(g16
g2
Ntp113
Rp114
(dp115
g15
I-1
sbsba(ics475_types
Instance
p116
(dp117
g10
(ics475_types
FeatureVector
p118
(dp119
g13
(dp120
I65
F1.0
sI6
F1.0
sI9
F1.0
sI78
F1.0
sI112
F1.0
sI51
F1.0
sI20
F1.0
sI23
F1.0
sI60
F1.0
sI95
F1.0
ssbsg15
g0
(g16
g2
Ntp121
Rp122
(dp123
g15
I1
sbsba(ics475_types
Instance
p124
(dp125
g10
(ics475_types
FeatureVector
p126
(dp127
g13
(dp128
I64
F1.0
sI65
F1.0
sI6
F1.0
sI103
F1.0
sI10
F1.0
sI77
F1.0
sI80
F1.0
sI21
F1.0
sI23
F1.0
sI92
F1.0
ssbsg15
g0
(g16
g2
Ntp129
Rp130
(dp131
g15
I1
sbsba(ics475_types
Instance
p132
(dp133
g10
(ics475_types
FeatureVector
p134
(dp135
g13
(dp136
I96
F1.0
sI6
F1.0
sI9
F1.0
sI79
F1.0
sI43
F1.0
sI15
F1.0
sI20
F1.0
sI22
F1.0
sI59
F1.0
sI62
F1.0
ssbsg15
g0
(g16
g2
Ntp137
Rp138
(dp139
g15
I-1
sbsba(ics475_types
Instance
p140
(dp141
g10
(ics475_types
FeatureVector
p142
(dp143
g13
(dp144
I66
F1.0
sI5
F1.0
sI104
F1.0
sI10
F1.0
sI43
F1.0
sI98
F1.0
sI80
F1.0
sI89
F1.0
sI59
F1.0
sI37
F1.0
ssbsg15
g0
(g16
g2
Ntp145
Rp146
(dp147
g15
I-1
sbsba(ics475_types
Instance
p148
(dp149
g10
(ics475_types
FeatureVector
p150
(dp151
g13
(dp152
I65
F1.0
sI5
F1.0
sI103
F1.0
sI10
F1.0
sI78
F1.0
sI79
F1.0
sI22
F1.0
sI24
F1.0
sI62
F1.0
sI63
F1.0
ssbsg15
g0
(g16
g2
Ntp153
Rp154
(dp155
g15
I-1
sbsba(ics475_types
Instance
p156
(dp157
g10
(ics475_types
FeatureVector
p158
(dp159
g13
(dp160
I66
F1.0
sI6
F1.0
sI49
F1.0
sI9
F1.0
sI110
F1.0
sI112
F1.0
sI81
F1.0
sI86
F1.0
sI59
F1.0
sI93
F1.0
ssbsg15
g0
(g16
g2
Ntp161
Rp162
(dp163
g15
I-1
sbsba(ics475_types
Instance
p164
(dp165
g10
(ics475_types
FeatureVector
p166
(dp167
g13
(dp168
I66
F1.0
sI118
F1.0
sI9
F1.0
sI80
F1.0
sI114
F1.0
sI51
F1.0
sI85
F1.0
sI22
F1.0
sI23
F1.0
sI61
F1.0
ssbsg15
g0
(g16
g2
Ntp169
Rp170
(dp171
g15
I1
sbsba(ics475_types
Instance
p172
(dp173
g10
(ics475_types
FeatureVector
p174
(dp175
g13
(dp176
I33
F1.0
sI65
F1.0
sI10
F1.0
sI78
F1.0
sI111
F1.0
sI82
F1.0
sI21
F1.0
sI24
F1.0
sI89
F1.0
sI60
F1.0
ssbsg15
g0
(g16
g2
Ntp177
Rp178
(dp179
g15
I1
sbsba(ics475_types
Instance
p180
(dp181
g10
(ics475_types
FeatureVector
p182
(dp183
g13
(dp184
I96
F1.0
sI65
F1.0
sI5
F1.0
sI10
F1.0
sI20
F1.0
sI69
F1.0
sI89
F1.0
sI74
F1.0
sI62
F1.0
sI37
F1.0
ssbsg15
g0
(g16
g2
Ntp185
Rp186
(dp187
g15
I1
sbsba(ics475_types
Instance
p188
(dp189
g10
(ics475_types
FeatureVector
p190
(dp191
g13
(dp192
I65
F1.0
sI34
F1.0
sI115
F1.0
sI6
F1.0
sI10
F1.0
sI77
F1.0
sI51
F1.0
sI23
F1.0
sI90
F1.0
sI62
F1.0
ssbsg15
g0
(g16
g2
Ntp193
Rp194
(dp195
g15
I1
sbsba(ics475_types
Instance
p196
(dp197
g10
(ics475_types
FeatureVector
p198
(dp199
g13
(dp200
I96
F1.0
sI33
F1.0
sI118
F1.0
sI51
F1.0
sI20
F1.0
sI22
F1.0
sI23
F1.0
sI89
F1.0
sI60
F1.0
sI61
F1.0
ssbsg15
g0
(g16
g2
Ntp201
Rp202
(dp203
g15
I1
sbsba(ics475_types
Instance
p204
(dp205
g10
(ics475_types
FeatureVector
p206
(dp207
g13
(dp208
I66
F1.0
sI37
F1.0
sI6
F1.0
sI9
F1.0
sI70
F1.0
sI79
F1.0
sI117
F1.0
sI90
F1.0
sI28
F1.0
sI63
F1.0
ssbsg15
g0
(g16
g2
Ntp209
Rp210
(dp211
g15
I1
sbsba(ics475_types
Instance
p212
(dp213
g10
(ics475_types
FeatureVector
p214
(dp215
g13
(dp216
I34
F1.0
sI6
F1.0
sI38
F1.0
sI80
F1.0
sI17
F1.0
sI115
F1.0
sI117
F1.0
sI89
F1.0
sI60
F1.0
sI63
F1.0
ssbsg15
g0
(g16
g2
Ntp217
Rp218
(dp219
g15
I-1
sbsba(ics475_types
Instance
p220
(dp221
g10
(ics475_types
FeatureVector
p222
(dp223
g13
(dp224
I96
F1.0
sI66
F1.0
sI6
F1.0
sI9
F1.0
sI110
F1.0
sI111
F1.0
sI81
F1.0
sI116
F1.0
sI21
F1.0
sI59
F1.0
ssbsg15
g0
(g16
g2
Ntp225
Rp226
(dp227
g15
I1
sbsba(ics475_types
Instance
p228
(dp229
g10
(ics475_types
FeatureVector
p230
(dp231
g13
(dp232
I64
F1.0
sI65
F1.0
sI34
F1.0
sI6
F1.0
sI71
F1.0
sI96
F1.0
sI10
F1.0
sI103
F1.0
sI79
F1.0
sI21
F1.0
ssbsg15
g0
(g16
g2
Ntp233
Rp234
(dp235
g15
I-1
sbsba(ics475_types
Instance
p236
(dp237
g10
(ics475_types
FeatureVector
p238
(dp239
g13
(dp240
I65
F1.0
sI34
F1.0
sI5
F1.0
sI44
F1.0
sI112
F1.0
sI21
F1.0
sI88
F1.0
sI89
F1.0
sI91
F1.0
sI62
F1.0
ssbsg15
g0
(g16
g2
Ntp241
Rp242
(dp243
g15
I1
sbsba(ics475_types
Instance
p244
(dp245
g10
(ics475_types
FeatureVector
p246
(dp247
g13
(dp248
I96
F1.0
sI33
F1.0
sI10
F1.0
sI43
F1.0
sI114
F1.0
sI116
F1.0
sI21
F1.0
sI89
F1.0
sI59
F1.0
sI62
F1.0
ssbsg15
g0
(g16
g2
Ntp249
Rp250
(dp251
g15
I-1
sbsba(ics475_types
Instance
p252
(dp253
g10
(ics475_types
FeatureVector
p254
(dp255
g13
(dp256
I96
F1.0
sI34
F1.0
sI5
F1.0
sI38
F1.0
sI103
F1.0
sI43
F1.0
sI66
F1.0
sI22
F1.0
sI89
F1.0
sI63
F1.0
ssbsg15
g0
(g16
g2
Ntp257
Rp258
(dp259
g15
I-1
sbsba(ics475_types
Instance
p260
(dp261
g10
(ics475_types
FeatureVector
p262
(dp263
g13
(dp264
I34
F1.0
sI6
F1.0
sI9
F1.0
sI66
F1.0
sI78
F1.0
sI79
F1.0
sI83
F1.0
sI24
F1.0
sI111
F1.0
sI63
F1.0
ssbsg15
g0
(g16
g2
Ntp265
Rp266
(dp267
g15
I-1
sbsba(ics475_types
Instance
p268
(dp269
g10
(ics475_types
FeatureVector
p270
(dp271
g13
(dp272
I65
F1.0
sI98
F1.0
sI6
F1.0
sI103
F1.0
sI9
F1.0
sI74
F1.0
sI44
F1.0
sI79
F1.0
sI21
F1.0
sI90
F1.0
ssbsg15
g0
(g16
g2
Ntp273
Rp274
(dp275
g15
I-1
sbsba(ics475_types
Instance
p276
(dp277
g10
(ics475_types
FeatureVector
p278
(dp279
g13
(dp280
I65
F1.0
sI35
F1.0
sI5
F1.0
sI97
F1.0
sI10
F1.0
sI114
F1.0
sI22
F1.0
sI90
F1.0
sI91
F1.0
sI60
F1.0
ssbsg15
g0
(g16
g2
Ntp281
Rp282
(dp283
g15
I-1
sbsba(ics475_types
Instance
p284
(dp285
g10
(ics475_types
FeatureVector
p286
(dp287
g13
(dp288
I33
F1.0
sI10
F1.0
sI44
F1.0
sI21
F1.0
sI118
F1.0
sI23
F1.0
sI90
F1.0
sI60
F1.0
sI61
F1.0
sI95
F1.0
ssbsg15
g0
(g16
g2
Ntp289
Rp290
(dp291
g15
I1
sbsba(ics475_types
Instance
p292
(dp293
g10
(ics475_types
FeatureVector
p294
(dp295
g13
(dp296
I33
F1.0
sI6
F1.0
sI65
F1.0
sI9
F1.0
sI44
F1.0
sI111
F1.0
sI22
F1.0
sI90
F1.0
sI62
F1.0
sI95
F1.0
ssbsg15
g0
(g16
g2
Ntp297
Rp298
(dp299
g15
I1
sbsba(ics475_types
Instance
p300
(dp301
g10
(ics475_types
FeatureVector
p302
(dp303
g13
(dp304
I64
F1.0
sI5
F1.0
sI7
F1.0
sI28
F1.0
sI77
F1.0
sI82
F1.0
sI53
F1.0
sI22
F1.0
sI89
F1.0
sI60
F1.0
ssbsg15
g0
(g16
g2
Ntp305
Rp306
(dp307
g15
I-1
sbsba(ics475_types
Instance
p308
(dp309
g10
(ics475_types
FeatureVector
p310
(dp311
g13
(dp312
I64
F1.0
sI65
F1.0
sI36
F1.0
sI6
F1.0
sI96
F1.0
sI115
F1.0
sI21
F1.0
sI89
F1.0
sI92
F1.0
sI117
F1.0
ssbsg15
g0
(g16
g2
Ntp313
Rp314
(dp315
g15
I1
sbsba(ics475_types
Instance
p316
(dp317
g10
(ics475_types
FeatureVector
p318
(dp319
g13
(dp320
I33
F1.0
sI36
F1.0
sI38
F1.0
sI10
F1.0
sI83
F1.0
sI21
F1.0
sI90
F1.0
sI59
F1.0
sI74
F1.0
sI95
F1.0
ssbsg15
g0
(g16
g2
Ntp321
Rp322
(dp323
g15
I1
sbsba(ics475_types
Instance
p324
(dp325
g10
(ics475_types
FeatureVector
p326
(dp327
g13
(dp328
I5
F1.0
sI10
F1.0
sI45
F1.0
sI80
F1.0
sI20
F1.0
sI21
F1.0
sI24
F1.0
sI74
F1.0
sI61
F1.0
sI95
F1.0
ssbsg15
g0
(g16
g2
Ntp329
Rp330
(dp331
g15
I1
sbsba(ics475_types
Instance
p332
(dp333
g10
(ics475_types
FeatureVector
p334
(dp335
g13
(dp336
I96
F1.0
sI37
F1.0
sI70
F1.0
sI9
F1.0
sI74
F1.0
sI19
F1.0
sI22
F1.0
sI89
F1.0
sI92
F1.0
sI61
F1.0
ssbsg15
g0
(g16
g2
Ntp337
Rp338
(dp339
g15
I1
sbsba(ics475_types
Instance
p340
(dp341
g10
(ics475_types
FeatureVector
p342
(dp343
g13
(dp344
I33
F1.0
sI35
F1.0
sI118
F1.0
sI9
F1.0
sI74
F1.0
sI80
F1.0
sI22
F1.0
sI60
F1.0
sI61
F1.0
sI95
F1.0
ssbsg15
g0
(g16
g2
Ntp345
Rp346
(dp347
g15
I-1
sbsba(ics475_types
Instance
p348
(dp349
g10
(ics475_types
FeatureVector
p350
(dp351
g13
(dp352
I96
F1.0
sI10
F1.0
sI43
F1.0
sI14
F1.0
sI79
F1.0
sI21
F1.0
sI59
F1.0
sI92
F1.0
sI62
F1.0
sI117
F1.0
ssbsg15
g0
(g16
g2
Ntp353
Rp354
(dp355
g15
I1
sbsba(ics475_types
Instance
p356
(dp357
g10
(ics475_types
FeatureVector
p358
(dp359
g13
(dp360
I33
F1.0
sI38
F1.0
sI74
F1.0
sI111
F1.0
sI20
F1.0
sI118
F1.0
sI23
F1.0
sI90
F1.0
sI59
F1.0
sI95
F1.0
ssbsg15
g0
(g16
g2
Ntp361
Rp362
(dp363
g15
I-1
sbsba(ics475_types
Instance
p364
(dp365
g10
(ics475_types
FeatureVector
p366
(dp367
g13
(dp368
I33
F1.0
sI5
F1.0
sI10
F1.0
sI111
F1.0
sI50
F1.0
sI116
F1.0
sI118
F1.0
sI90
F1.0
sI61
F1.0
sI95
F1.0
ssbsg15
g0
(g16
g2
Ntp369
Rp370
(dp371
g15
I1
sbsba(ics475_types
Instance
p372
(dp373
g10
(ics475_types
FeatureVector
p374
(dp375
g13
(dp376
I64
F1.0
sI96
F1.0
sI36
F1.0
sI6
F1.0
sI73
F1.0
sI14
F1.0
sI79
F1.0
sI17
F1.0
sI117
F1.0
sI59
F1.0
ssbsg15
g0
(g16
g2
Ntp377
Rp378
(dp379
g15
I1
sbsba(ics475_types
Instance
p380
(dp381
g10
(ics475_types
FeatureVector
p382
(dp383
g13
(dp384
I96
F1.0
sI5
F1.0
sI38
F1.0
sI73
F1.0
sI46
F1.0
sI92
F1.0
sI17
F1.0
sI19
F1.0
sI85
F1.0
sI60
F1.0
ssbsg15
g0
(g16
g2
Ntp385
Rp386
(dp387
g15
I1
sbsba(ics475_types
Instance
p388
(dp389
g10
(ics475_types
FeatureVector
p390
(dp391
g13
(dp392
I65
F1.0
sI36
F1.0
sI13
F1.0
sI46
F1.0
sI79
F1.0
sI17
F1.0
sI118
F1.0
sI90
F1.0
sI91
F1.0
sI60
F1.0
ssbsg15
g0
(g16
g2
Ntp393
Rp394
(dp395
g15
I1
sbsba(ics475_types
Instance
p396
(dp397
g10
(ics475_types
FeatureVector
p398
(dp399
g13
(dp400
I65
F1.0
sI98
F1.0
sI36
F1.0
sI10
F1.0
sI13
F1.0
sI80
F1.0
sI21
F1.0
sI89
F1.0
sI91
F1.0
sI74
F1.0
ssbsg15
g0
(g16
g2
Ntp401
Rp402
(dp403
g15
I1
sbsba(ics475_types
Instance
p404
(dp405
g10
(ics475_types
FeatureVector
p406
(dp407
g13
(dp408
I96
F1.0
sI65
F1.0
sI34
F1.0
sI69
F1.0
sI112
F1.0
sI18
F1.0
sI21
F1.0
sI23
F1.0
sI89
F1.0
sI60
F1.0
ssbsg15
g0
(g16
g2
Ntp409
Rp410
(dp411
g15
I1
sbsba(ics475_types
Instance
p412
(dp413
g10
(ics475_types
FeatureVector
p414
(dp415
g13
(dp416
I65
F1.0
sI34
F1.0
sI69
F1.0
sI6
F1.0
sI10
F1.0
sI82
F1.0
sI21
F1.0
sI117
F1.0
sI62
F1.0
sI95
F1.0
ssbsg15
g0
(g16
g2
Ntp417
Rp418
(dp419
g15
I-1
sbsba(ics475_types
Instance
p420
(dp421
g10
(ics475_types
FeatureVector
p422
(dp423
g13
(dp424
I96
F1.0
sI33
F1.0
sI66
F1.0
sI5
F1.0
sI14
F1.0
sI112
F1.0
sI21
F1.0
sI118
F1.0
sI89
F1.0
sI59
F1.0
ssbsg15
g0
(g16
g2
Ntp425
Rp426
(dp427
g15
I1
sbsba(ics475_types
Instance
p428
(dp429
g10
(ics475_types
FeatureVector
p430
(dp431
g13
(dp432
I33
F1.0
sI5
F1.0
sI74
F1.0
sI15
F1.0
sI81
F1.0
sI22
F1.0
sI59
F1.0
sI86
F1.0
sI118
F1.0
sI62
F1.0
ssbsg15
g0
(g16
g2
Ntp433
Rp434
(dp435
g15
I-1
sbsba(ics475_types
Instance
p436
(dp437
g10
(ics475_types
FeatureVector
p438
(dp439
g13
(dp440
I64
F1.0
sI69
F1.0
sI74
F1.0
sI111
F1.0
sI81
F1.0
sI118
F1.0
sI22
F1.0
sI90
F1.0
sI61
F1.0
sI5
F1.0
ssbsg15
g0
(g16
g2
Ntp441
Rp442
(dp443
g15
I-1
sbsba(ics475_types
Instance
p444
(dp445
g10
(ics475_types
FeatureVector
p446
(dp447
g13
(dp448
I34
F1.0
sI118
F1.0
sI9
F1.0
sI44
F1.0
sI45
F1.0
sI19
F1.0
sI86
F1.0
sI73
F1.0
sI62
F1.0
sI95
F1.0
ssbsg15
g0
(g16
g2
Ntp449
Rp450
(dp451
g15
I-1
sbsba(ics475_types
Instance
p452
(dp453
g10
(ics475_types
FeatureVector
p454
(dp455
g13
(dp456
I65
F1.0
sI34
F1.0
sI73
F1.0
sI79
F1.0
sI112
F1.0
sI18
F1.0
sI21
F1.0
sI90
F1.0
sI60
F1.0
sI117
F1.0
ssbsg15
g0
(g16
g2
Ntp457
Rp458
(dp459
g15
I-1
sbsba(ics475_types
Instance
p460
(dp461
g10
(ics475_types
FeatureVector
p462
(dp463
g13
(dp464
I35
F1.0
sI5
F1.0
sI70
F1.0
sI73
F1.0
sI79
F1.0
sI21
F1.0
sI118
F1.0
sI24
F1.0
sI90
F1.0
sI60
F1.0
ssbsg15
g0
(g16
g2
Ntp465
Rp466
(dp467
g15
I1
sbsba(ics475_types
Instance
p468
(dp469
g10
(ics475_types
FeatureVector
p470
(dp471
g13
(dp472
I6
F1.0
sI9
F1.0
sI14
F1.0
sI111
F1.0
sI92
F1.0
sI49
F1.0
sI90
F1.0
sI60
F1.0
sI61
F1.0
sI95
F1.0
ssbsg15
g0
(g16
g2
Ntp473
Rp474
(dp475
g15
I1
sbsba(ics475_types
Instance
p476
(dp477
g10
(ics475_types
FeatureVector
p478
(dp479
g13
(dp480
I96
F1.0
sI118
F1.0
sI9
F1.0
sI44
F1.0
sI18
F1.0
sI73
F1.0
sI23
F1.0
sI89
F1.0
sI60
F1.0
sI61
F1.0
ssbsg15
g0
(g16
g2
Ntp481
Rp482
(dp483
g15
I-1
sbsba(ics475_types
Instance
p484
(dp485
g10
(ics475_types
FeatureVector
p486
(dp487
g13
(dp488
I96
F1.0
sI6
F1.0
sI10
F1.0
sI46
F1.0
sI15
F1.0
sI81
F1.0
sI19
F1.0
sI21
F1.0
sI59
F1.0
sI62
F1.0
ssbsg15
g0
(g16
g2
Ntp489
Rp490
(dp491
g15
I1
sbsba(ics475_types
Instance
p492
(dp493
g10
(ics475_types
FeatureVector
p494
(dp495
g13
(dp496
I96
F1.0
sI97
F1.0
sI70
F1.0
sI6
F1.0
sI38
F1.0
sI13
F1.0
sI21
F1.0
sI91
F1.0
sI60
F1.0
sI63
F1.0
ssbsg15
g0
(g16
g2
Ntp497
Rp498
(dp499
g15
I-1
sbsba(ics475_types
Instance
p500
(dp501
g10
(ics475_types
FeatureVector
p502
(dp503
g13
(dp504
I10
F1.0
sI13
F1.0
sI50
F1.0
sI117
F1.0
sI22
F1.0
sI23
F1.0
sI90
F1.0
sI59
F1.0
sI74
F1.0
sI95
F1.0
ssbsg15
g0
(g16
g2
Ntp505
Rp506
(dp507
g15
I-1
sbsba(ics475_types
Instance
p508
(dp509
g10
(ics475_types
FeatureVector
p510
(dp511
g13
(dp512
I37
F1.0
sI10
F1.0
sI82
F1.0
sI19
F1.0
sI74
F1.0
sI117
F1.0
sI22
F1.0
sI60
F1.0
sI61
F1.0
sI95
F1.0
ssbsg15
g0
(g16
g2
Ntp513
Rp514
(dp515
g15
I1
sbsba(ics475_types
Instance
p516
(dp517
g10
(ics475_types
FeatureVector
p518
(dp519
g13
(dp520
I33
F1.0
sI40
F1.0
sI9
F1.0
sI112
F1.0
sI20
F1.0
sI21
F1.0
sI73
F1.0
sI90
F1.0
sI60
F1.0
sI95
F1.0
ssbsg15
g0
(g16
g2
Ntp521
Rp522
(dp523
g15
I1
sbsba(ics475_types
Instance
p524
(dp525
g10
(ics475_types
FeatureVector
p526
(dp527
g13
(dp528
I96
F1.0
sI69
F1.0
sI9
F1.0
sI73
F1.0
sI112
F1.0
sI20
F1.0
sI22
F1.0
sI23
F1.0
sI89
F1.0
sI60
F1.0
ssbsg15
g0
(g16
g2
Ntp529
Rp530
(dp531
g15
I1
sbsba(ics475_types
Instance
p532
(dp533
g10
(ics475_types
FeatureVector
p534
(dp535
g13
(dp536
I65
F1.0
sI34
F1.0
sI67
F1.0
sI6
F1.0
sI112
F1.0
sI82
F1.0
sI115
F1.0
sI117
F1.0
sI89
F1.0
sI60
F1.0
ssbsg15
g0
(g16
g2
Ntp537
Rp538
(dp539
g15
I1
sbsba(ics475_types
Instance
p540
(dp541
g10
(ics475_types
FeatureVector
p542
(dp543
g13
(dp544
I98
F1.0
sI91
F1.0
sI70
F1.0
sI10
F1.0
sI13
F1.0
sI111
F1.0
sI90
F1.0
sI59
F1.0
sI74
F1.0
sI95
F1.0
ssbsg15
g0
(g16
g2
Ntp545
Rp546
(dp547
g15
I-1
sbsba(ics475_types
Instance
p548
(dp549
g10
(ics475_types
FeatureVector
p550
(dp551
g13
(dp552
I91
F1.0
sI10
F1.0
sI43
F1.0
sI14
F1.0
sI79
F1.0
sI21
F1.0
sI118
F1.0
sI90
F1.0
sI59
F1.0
sI62
F1.0
ssbsg15
g0
(g16
g2
Ntp553
Rp554
(dp555
g15
I1
sbsba(ics475_types
Instance
p556
(dp557
g10
(ics475_types
FeatureVector
p558
(dp559
g13
(dp560
I65
F1.0
sI34
F1.0
sI5
F1.0
sI9
F1.0
sI74
F1.0
sI43
F1.0
sI18
F1.0
sI116
F1.0
sI90
F1.0
sI95
F1.0
ssbsg15
g0
(g16
g2
Ntp561
Rp562
(dp563
g15
I-1
sbsba(ics475_types
Instance
p564
(dp565
g10
(ics475_types
FeatureVector
p566
(dp567
g13
(dp568
I65
F1.0
sI37
F1.0
sI10
F1.0
sI46
F1.0
sI15
F1.0
sI118
F1.0
sI90
F1.0
sI59
F1.0
sI92
F1.0
sI95
F1.0
ssbsg15
g0
(g16
g2
Ntp569
Rp570
(dp571
g15
I-1
sbsba(ics475_types
Instance
p572
(dp573
g10
(ics475_types
FeatureVector
p574
(dp575
g13
(dp576
I96
F1.0
sI91
F1.0
sI10
F1.0
sI13
F1.0
sI111
F1.0
sI84
F1.0
sI22
F1.0
sI89
F1.0
sI59
F1.0
sI62
F1.0
ssbsg15
g0
(g16
g2
Ntp577
Rp578
(dp579
g15
I-1
sbsba(ics475_types
Instance
p580
(dp581
g10
(ics475_types
FeatureVector
p582
(dp583
g13
(dp584
I65
F1.0
sI69
F1.0
sI38
F1.0
sI10
F1.0
sI79
F1.0
sI50
F1.0
sI21
F1.0
sI90
F1.0
sI91
F1.0
sI60
F1.0
ssbsg15
g0
(g16
g2
Ntp585
Rp586
(dp587
g15
I1
sbsba(ics475_types
Instance
p588
(dp589
g10
(ics475_types
FeatureVector
p590
(dp591
g13
(dp592
I9
F1.0
sI74
F1.0
sI43
F1.0
sI111
F1.0
sI18
F1.0
sI116
F1.0
sI118
F1.0
sI90
F1.0
sI59
F1.0
sI95
F1.0
ssbsg15
g0
(g16
g2
Ntp593
Rp594
(dp595
g15
I-1
sbsba(ics475_types
Instance
p596
(dp597
g10
(ics475_types
FeatureVector
p598
(dp599
g13
(dp600
I33
F1.0
sI66
F1.0
sI6
F1.0
sI74
F1.0
sI45
F1.0
sI79
F1.0
sI17
F1.0
sI26
F1.0
sI111
F1.0
sI90
F1.0
ssbsg15
g0
(g16
g2
Ntp601
Rp602
(dp603
g15
I1
sbsba(ics475_types
Instance
p604
(dp605
g10
(ics475_types
FeatureVector
p606
(dp607
g13
(dp608
I65
F1.0
sI36
F1.0
sI6
F1.0
sI38
F1.0
sI43
F1.0
sI111
F1.0
sI17
F1.0
sI82
F1.0
sI89
F1.0
sI60
F1.0
ssbsg15
g0
(g16
g2
Ntp609
Rp610
(dp611
g15
I-1
sbsba(ics475_types
Instance
p612
(dp613
g10
(ics475_types
FeatureVector
p614
(dp615
g13
(dp616
I65
F1.0
sI6
F1.0
sI103
F1.0
sI10
F1.0
sI79
F1.0
sI17
F1.0
sI90
F1.0
sI27
F1.0
sI60
F1.0
sI74
F1.0
ssbsg15
g0
(g16
g2
Ntp617
Rp618
(dp619
g15
I1
sbsba(ics475_types
Instance
p620
(dp621
g10
(ics475_types
FeatureVector
p622
(dp623
g13
(dp624
I66
F1.0
sI6
F1.0
sI103
F1.0
sI10
F1.0
sI79
F1.0
sI19
F1.0
sI57
F1.0
sI90
F1.0
sI111
F1.0
sI92
F1.0
ssbsg15
g0
(g16
g2
Ntp625
Rp626
(dp627
g15
I-1
sbsba(ics475_types
Instance
p628
(dp629
g10
(ics475_types
FeatureVector
p630
(dp631
g13
(dp632
I33
F1.0
sI6
F1.0
sI72
F1.0
sI9
F1.0
sI112
F1.0
sI81
F1.0
sI115
F1.0
sI90
F1.0
sI60
F1.0
sI61
F1.0
ssbsg15
g0
(g16
g2
Ntp633
Rp634
(dp635
g15
I-1
sbsba(ics475_types
Instance
p636
(dp637
g10
(ics475_types
FeatureVector
p638
(dp639
g13
(dp640
I65
F1.0
sI35
F1.0
sI72
F1.0
sI10
F1.0
sI17
F1.0
sI104
F1.0
sI90
F1.0
sI91
F1.0
sI28
F1.0
sI95
F1.0
ssbsg15
g0
(g16
g2
Ntp641
Rp642
(dp643
g15
I-1
sbsba(ics475_types
Instance
p644
(dp645
g10
(ics475_types
FeatureVector
p646
(dp647
g13
(dp648
I34
F1.0
sI5
F1.0
sI38
F1.0
sI9
F1.0
sI43
F1.0
sI45
F1.0
sI81
F1.0
sI18
F1.0
sI90
F1.0
sI60
F1.0
ssbsg15
g0
(g16
g2
Ntp649
Rp650
(dp651
g15
I-1
sbsba(ics475_types
Instance
p652
(dp653
g10
(ics475_types
FeatureVector
p654
(dp655
g13
(dp656
I65
F1.0
sI34
F1.0
sI6
F1.0
sI9
F1.0
sI45
F1.0
sI80
F1.0
sI92
F1.0
sI21
F1.0
sI89
F1.0
sI60
F1.0
ssbsg15
g0
(g16
g2
Ntp657
Rp658
(dp659
g15
I-1
sbsba(ics475_types
Instance
p660
(dp661
g10
(ics475_types
FeatureVector
p662
(dp663
g13
(dp664
I65
F1.0
sI5
F1.0
sI92
F1.0
sI10
F1.0
sI82
F1.0
sI47
F1.0
sI18
F1.0
sI21
F1.0
sI79
F1.0
sI60
F1.0
ssbsg15
g0
(g16
g2
Ntp665
Rp666
(dp667
g15
I1
sbsba(ics475_types
Instance
p668
(dp669
g10
(ics475_types
FeatureVector
p670
(dp671
g13
(dp672
I33
F1.0
sI6
F1.0
sI104
F1.0
sI10
F1.0
sI45
F1.0
sI79
F1.0
sI21
F1.0
sI55
F1.0
sI90
F1.0
sI62
F1.0
ssbsg15
g0
(g16
g2
Ntp673
Rp674
(dp675
g15
I1
sbsba(ics475_types
Instance
p676
(dp677
g10
(ics475_types
FeatureVector
p678
(dp679
g13
(dp680
I36
F1.0
sI92
F1.0
sI10
F1.0
sI13
F1.0
sI80
F1.0
sI21
F1.0
sI89
F1.0
sI27
F1.0
sI60
F1.0
sI61
F1.0
ssbsg15
g0
(g16
g2
Ntp681
Rp682
(dp683
g15
I-1
sbsba(ics475_types
Instance
p684
(dp685
g10
(ics475_types
FeatureVector
p686
(dp687
g13
(dp688
I66
F1.0
sI6
F1.0
sI111
F1.0
sI51
F1.0
sI116
F1.0
sI21
F1.0
sI24
F1.0
sI90
F1.0
sI59
F1.0
sI95
F1.0
ssbsg15
g0
(g16
g2
Ntp689
Rp690
(dp691
g15
I1
sbsba(ics475_types
Instance
p692
(dp693
g10
(ics475_types
FeatureVector
p694
(dp695
g13
(dp696
I33
F1.0
sI72
F1.0
sI14
F1.0
sI112
F1.0
sI17
F1.0
sI82
F1.0
sI57
F1.0
sI59
F1.0
sI92
F1.0
sI95
F1.0
ssbsg15
g0
(g16
g2
Ntp697
Rp698
(dp699
g15
I-1
sbsba(ics475_types
Instance
p700
(dp701
g10
(ics475_types
FeatureVector
p702
(dp703
g13
(dp704
I65
F1.0
sI3
F1.0
sI6
F1.0
sI72
F1.0
sI9
F1.0
sI80
F1.0
sI104
F1.0
sI89
F1.0
sI91
F1.0
sI28
F1.0
ssbsg15
g0
(g16
g2
Ntp705
Rp706
(dp707
g15
I-1
sbsba(ics475_types
Instance
p708
(dp709
g10
(ics475_types
FeatureVector
p710
(dp711
g13
(dp712
I33
F1.0
sI66
F1.0
sI6
F1.0
sI10
F1.0
sI13
F1.0
sI46
F1.0
sI82
F1.0
sI21
F1.0
sI89
F1.0
sI61
F1.0
ssbsg15
g0
(g16
g2
Ntp713
Rp714
(dp715
g15
I-1
sbsba(ics475_types
Instance
p716
(dp717
g10
(ics475_types
FeatureVector
p718
(dp719
g13
(dp720
I80
F1.0
sI118
F1.0
sI9
F1.0
sI46
F1.0
sI111
F1.0
sI48
F1.0
sI49
F1.0
sI22
F1.0
sI89
F1.0
sI59
F1.0
ssbsg15
g0
(g16
g2
Ntp721
Rp722
(dp723
g15
I-1
sbsba(ics475_types
Instance
p724
(dp725
g10
(ics475_types
FeatureVector
p726
(dp727
g13
(dp728
I35
F1.0
sI6
F1.0
sI9
F1.0
sI46
F1.0
sI79
F1.0
sI91
F1.0
sI22
F1.0
sI90
F1.0
sI59
F1.0
sI62
F1.0
ssbsg15
g0
(g16
g2
Ntp729
Rp730
(dp731
g15
I-1
sbsba(ics475_types
Instance
p732
(dp733
g10
(ics475_types
FeatureVector
p734
(dp735
g13
(dp736
I65
F1.0
sI6
F1.0
sI45
F1.0
sI112
F1.0
sI17
F1.0
sI82
F1.0
sI20
F1.0
sI89
F1.0
sI27
F1.0
sI60
F1.0
ssbsg15
g0
(g16
g2
Ntp737
Rp738
(dp739
g15
I-1
sbsba(ics475_types
Instance
p740
(dp741
g10
(ics475_types
FeatureVector
p742
(dp743
g13
(dp744
I36
F1.0
sI6
F1.0
sI13
F1.0
sI111
F1.0
sI116
F1.0
sI117
F1.0
sI90
F1.0
sI59
F1.0
sI62
F1.0
sI95
F1.0
ssbsg15
g0
(g16
g2
Ntp745
Rp746
(dp747
g15
I-1
sbsba(ics475_types
Instance
p748
(dp749
g10
(ics475_types
FeatureVector
p750
(dp751
g13
(dp752
I65
F1.0
sI33
F1.0
sI104
F1.0
sI9
F1.0
sI14
F1.0
sI112
F1.0
sI83
F1.0
sI90
F1.0
sI91
F1.0
sI60
F1.0
ssbsg15
g0
(g16
g2
Ntp753
Rp754
(dp755
g15
I1
sbsba(ics475_types
Instance
p756
(dp757
g10
(ics475_types
FeatureVector
p758
(dp759
g13
(dp760
I34
F1.0
sI91
F1.0
sI9
F1.0
sI13
F1.0
sI45
F1.0
sI50
F1.0
sI22
F1.0
sI90
F1.0
sI79
F1.0
sI60
F1.0
ssbsg15
g0
(g16
g2
Ntp761
Rp762
(dp763
g15
I-1
sbsba(ics475_types
Instance
p764
(dp765
g10
(ics475_types
FeatureVector
p766
(dp767
g13
(dp768
I96
F1.0
sI100
F1.0
sI49
F1.0
sI46
F1.0
sI111
F1.0
sI17
F1.0
sI116
F1.0
sI22
F1.0
sI89
F1.0
sI57
F1.0
ssbsg15
g0
(g16
g2
Ntp769
Rp770
(dp771
g15
I1
sbsba(ics475_types
Instance
p772
(dp773
g10
(ics475_types
FeatureVector
p774
(dp775
g13
(dp776
I34
F1.0
sI9
F1.0
sI79
F1.0
sI92
F1.0
sI18
F1.0
sI21
F1.0
sI73
F1.0
sI55
F1.0
sI90
F1.0
sI60
F1.0
ssbsg15
g0
(g16
g2
Ntp777
Rp778
(dp779
g15
I1
sbsba(ics475_types
Instance
p780
(dp781
g10
(ics475_types
FeatureVector
p782
(dp783
g13
(dp784
I64
F1.0
sI37
F1.0
sI6
F1.0
sI87
F1.0
sI46
F1.0
sI15
F1.0
sI112
F1.0
sI55
F1.0
sI90
F1.0
sI59
F1.0
ssbsg15
g0
(g16
g2
Ntp785
Rp786
(dp787
g15
I1
sbsba(ics475_types
Instance
p788
(dp789
g10
(ics475_types
FeatureVector
p790
(dp791
g13
(dp792
I65
F1.0
sI6
F1.0
sI10
F1.0
sI107
F1.0
sI46
F1.0
sI83
F1.0
sI25
F1.0
sI90
F1.0
sI74
F1.0
sI31
F1.0
ssbsg15
g0
(g16
g2
Ntp793
Rp794
(dp795
g15
I1
sbsba(ics475_types
Instance
p796
(dp797
g10
(ics475_types
FeatureVector
p798
(dp799
g13
(dp800
I65
F1.0
sI34
F1.0
sI99
F1.0
sI6
F1.0
sI49
F1.0
sI80
F1.0
sI17
F1.0
sI89
F1.0
sI92
F1.0
sI62
F1.0
ssbsg15
g0
(g16
g2
Ntp801
Rp802
(dp803
g15
I1
sbsba(ics475_types
Instance
p804
(dp805
g10
(ics475_types
FeatureVector
p806
(dp807
g13
(dp808
I6
F1.0
sI10
F1.0
sI43
F1.0
sI111
F1.0
sI117
F1.0
sI22
F1.0
sI88
F1.0
sI89
F1.0
sI60
F1.0
sI61
F1.0
ssbsg15
g0
(g16
g2
Ntp809
Rp810
(dp811
g15
I1
sbsba(ics475_types
Instance
p812
(dp813
g10
(ics475_types
FeatureVector
p814
(dp815
g13
(dp816
I64
F1.0
sI5
F1.0
sI45
F1.0
sI15
F1.0
sI50
F1.0
sI22
F1.0
sI89
F1.0
sI59
F1.0
sI86
F1.0
sI118
F1.0
ssbsg15
g0
(g16
g2
Ntp817
Rp818
(dp819
g15
I-1
sbsba(ics475_types
Instance
p820
(dp821
g10
(ics475_types
FeatureVector
p822
(dp823
g13
(dp824
I66
F1.0
sI68
F1.0
sI5
F1.0
sI10
F1.0
sI45
F1.0
sI79
F1.0
sI117
F1.0
sI22
F1.0
sI55
F1.0
sI90
F1.0
ssbsg15
g0
(g16
g2
Ntp825
Rp826
(dp827
g15
I1
sbsba(ics475_types
Instance
p828
(dp829
g10
(ics475_types
FeatureVector
p830
(dp831
g13
(dp832
I96
F1.0
sI33
F1.0
sI66
F1.0
sI37
F1.0
sI10
F1.0
sI98
F1.0
sI112
F1.0
sI117
F1.0
sI89
F1.0
sI61
F1.0
ssbsg15
g0
(g16
g2
Ntp833
Rp834
(dp835
g15
I1
sbsba(ics475_types
Instance
p836
(dp837
g10
(ics475_types
FeatureVector
p838
(dp839
g13
(dp840
I66
F1.0
sI6
F1.0
sI14
F1.0
sI15
F1.0
sI49
F1.0
sI82
F1.0
sI22
F1.0
sI89
F1.0
sI111
F1.0
sI63
F1.0
ssbsg15
g0
(g16
g2
Ntp841
Rp842
(dp843
g15
I-1
sbsba(ics475_types
Instance
p844
(dp845
g10
(ics475_types
FeatureVector
p846
(dp847
g13
(dp848
I65
F1.0
sI38
F1.0
sI70
F1.0
sI43
F1.0
sI15
F1.0
sI81
F1.0
sI118
F1.0
sI90
F1.0
sI111
F1.0
sI62
F1.0
ssbsg15
g0
(g16
g2
Ntp849
Rp850
(dp851
g15
I-1
sbsba(ics475_types
Instance
p852
(dp853
g10
(ics475_types
FeatureVector
p854
(dp855
g13
(dp856
I66
F1.0
sI118
F1.0
sI9
F1.0
sI111
F1.0
sI50
F1.0
sI22
F1.0
sI73
F1.0
sI90
F1.0
sI95
F1.0
sI31
F1.0
ssbsg15
g0
(g16
g2
Ntp857
Rp858
(dp859
g15
I1
sbsba(ics475_types
Instance
p860
(dp861
g10
(ics475_types
FeatureVector
p862
(dp863
g13
(dp864
I96
F1.0
sI65
F1.0
sI38
F1.0
sI46
F1.0
sI112
F1.0
sI17
F1.0
sI19
F1.0
sI23
F1.0
sI89
F1.0
sI58
F1.0
ssbsg15
g0
(g16
g2
Ntp865
Rp866
(dp867
g15
I-1
sbsba(ics475_types
Instance
p868
(dp869
g10
(ics475_types
FeatureVector
p870
(dp871
g13
(dp872
I66
F1.0
sI5
F1.0
sI74
F1.0
sI45
F1.0
sI14
F1.0
sI112
F1.0
sI23
F1.0
sI90
F1.0
sI91
F1.0
sI61
F1.0
ssbsg15
g0
(g16
g2
Ntp873
Rp874
(dp875
g15
I-1
sbsba(ics475_types
Instance
p876
(dp877
g10
(ics475_types
FeatureVector
p878
(dp879
g13
(dp880
I66
F1.0
sI37
F1.0
sI71
F1.0
sI46
F1.0
sI111
F1.0
sI49
F1.0
sI82
F1.0
sI22
F1.0
sI24
F1.0
sI89
F1.0
ssbsg15
g0
(g16
g2
Ntp881
Rp882
(dp883
g15
I1
sbsba(ics475_types
Instance
p884
(dp885
g10
(ics475_types
FeatureVector
p886
(dp887
g13
(dp888
I96
F1.0
sI65
F1.0
sI38
F1.0
sI43
F1.0
sI14
F1.0
sI15
F1.0
sI50
F1.0
sI118
F1.0
sI89
F1.0
sI111
F1.0
ssbsg15
g0
(g16
g2
Ntp889
Rp890
(dp891
g15
I-1
sbsba(ics475_types
Instance
p892
(dp893
g10
(ics475_types
FeatureVector
p894
(dp895
g13
(dp896
I66
F1.0
sI37
F1.0
sI6
F1.0
sI72
F1.0
sI73
F1.0
sI111
F1.0
sI19
F1.0
sI24
F1.0
sI89
F1.0
sI92
F1.0
ssbsg15
g0
(g16
g2
Ntp897
Rp898
(dp899
g15
I1
sbsba(ics475_types
Instance
p900
(dp901
g10
(ics475_types
FeatureVector
p902
(dp903
g13
(dp904
I66
F1.0
sI38
F1.0
sI9
F1.0
sI14
F1.0
sI79
F1.0
sI49
F1.0
sI22
F1.0
sI73
F1.0
sI90
F1.0
sI111
F1.0
ssbsg15
g0
(g16
g2
Ntp905
Rp906
(dp907
g15
I-1
sbsba(ics475_types
Instance
p908
(dp909
g10
(ics475_types
FeatureVector
p910
(dp911
g13
(dp912
I65
F1.0
sI34
F1.0
sI38
F1.0
sI72
F1.0
sI45
F1.0
sI111
F1.0
sI81
F1.0
sI21
F1.0
sI118
F1.0
sI90
F1.0
ssbsg15
g0
(g16
g2
Ntp913
Rp914
(dp915
g15
I-1
sbsba(ics475_types
Instance
p916
(dp917
g10
(ics475_types
FeatureVector
p918
(dp919
g13
(dp920
I66
F1.0
sI91
F1.0
sI5
F1.0
sI38
F1.0
sI44
F1.0
sI111
F1.0
sI16
F1.0
sI90
F1.0
sI59
F1.0
sI63
F1.0
ssbsg15
g0
(g16
g2
Ntp921
Rp922
(dp923
g15
I-1
sbsba(ics475_types
Instance
p924
(dp925
g10
(ics475_types
FeatureVector
p926
(dp927
g13
(dp928
I64
F1.0
sI66
F1.0
sI69
F1.0
sI6
F1.0
sI73
F1.0
sI15
F1.0
sI112
F1.0
sI82
F1.0
sI89
F1.0
sI37
F1.0
ssbsg15
g0
(g16
g2
Ntp929
Rp930
(dp931
g15
I1
sbsba(ics475_types
Instance
p932
(dp933
g10
(ics475_types
FeatureVector
p934
(dp935
g13
(dp936
I34
F1.0
sI36
F1.0
sI98
F1.0
sI113
F1.0
sI43
F1.0
sI66
F1.0
sI15
F1.0
sI49
F1.0
sI89
F1.0
sI92
F1.0
ssbsg15
g0
(g16
g2
Ntp937
Rp938
(dp939
g15
I-1
sbsba(ics475_types
Instance
p940
(dp941
g10
(ics475_types
FeatureVector
p942
(dp943
g13
(dp944
I82
F1.0
sI92
F1.0
sI13
F1.0
sI15
F1.0
sI49
F1.0
sI18
F1.0
sI20
F1.0
sI111
F1.0
sI60
F1.0
sI95
F1.0
ssbsg15
g0
(g16
g2
Ntp945
Rp946
(dp947
g15
I-1
sbsba(ics475_types
Instance
p948
(dp949
g10
(ics475_types
FeatureVector
p950
(dp951
g13
(dp952
I64
F1.0
sI6
F1.0
sI9
F1.0
sI74
F1.0
sI15
F1.0
sI115
F1.0
sI24
F1.0
sI89
F1.0
sI59
F1.0
sI92
F1.0
ssbsg15
g0
(g16
g2
Ntp953
Rp954
(dp955
g15
I1
sbsba(ics475_types
Instance
p956
(dp957
g10
(ics475_types
FeatureVector
p958
(dp959
g13
(dp960
I64
F1.0
sI66
F1.0
sI38
F1.0
sI49
F1.0
sI71
F1.0
sI17
F1.0
sI82
F1.0
sI21
F1.0
sI118
F1.0
sI89
F1.0
ssbsg15
g0
(g16
g2
Ntp961
Rp962
(dp963
g15
I-1
sbsba(ics475_types
Instance
p964
(dp965
g10
(ics475_types
FeatureVector
p966
(dp967
g13
(dp968
I65
F1.0
sI70
F1.0
sI38
F1.0
sI9
F1.0
sI45
F1.0
sI80
F1.0
sI50
F1.0
sI21
F1.0
sI118
F1.0
sI89
F1.0
ssbsg15
g0
(g16
g2
Ntp969
Rp970
(dp971
g15
I1
sbsba(ics475_types
Instance
p972
(dp973
g10
(ics475_types
FeatureVector
p974
(dp975
g13
(dp976
I64
F1.0
sI66
F1.0
sI38
F1.0
sI43
F1.0
sI82
F1.0
sI15
F1.0
sI49
F1.0
sI18
F1.0
sI89
F1.0
sI111
F1.0
ssbsg15
g0
(g16
g2
Ntp977
Rp978
(dp979
g15
I-1
sbsba(ics475_types
Instance
p980
(dp981
g10
(ics475_types
FeatureVector
p982
(dp983
g13
(dp984
I66
F1.0
sI69
F1.0
sI10
F1.0
sI46
F1.0
sI112
F1.0
sI81
F1.0
sI21
F1.0
sI90
F1.0
sI59
F1.0
sI117
F1.0
ssbsg15
g0
(g16
g2
Ntp985
Rp986
(dp987
g15
I-1
sbsba(ics475_types
Instance
p988
(dp989
g10
(ics475_types
FeatureVector
p990
(dp991
g13
(dp992
I96
F1.0
sI33
F1.0
sI37
F1.0
sI10
F1.0
sI16
F1.0
sI116
F1.0
sI21
F1.0
sI89
F1.0
sI60
F1.0
sI63
F1.0
ssbsg15
g0
(g16
g2
Ntp993
Rp994
(dp995
g15
I1
sbsba(ics475_types
Instance
p996
(dp997
g10
(ics475_types
FeatureVector
p998
(dp999
g13
(dp1000
I65
F1.0
sI35
F1.0
sI38
F1.0
sI97
F1.0
sI74
F1.0
sI111
F1.0
sI80
F1.0
sI22
F1.0
sI91
F1.0
sI60
F1.0
ssbsg15
g0
(g16
g2
Ntp1001
Rp1002
(dp1003
g15
I1
sbsba(ics475_types
Instance
p1004
(dp1005
g10
(ics475_types
FeatureVector
p1006
(dp1007
g13
(dp1008
I64
F1.0
sI33
F1.0
sI36
F1.0
sI74
F1.0
sI11
F1.0
sI49
F1.0
sI82
F1.0
sI117
F1.0
sI22
F1.0
sI89
F1.0
ssbsg15
g0
(g16
g2
Ntp1009
Rp1010
(dp1011
g15
I-1
sbsba(ics475_types
Instance
p1012
(dp1013
g10
(ics475_types
FeatureVector
p1014
(dp1015
g13
(dp1016
I65
F1.0
sI37
F1.0
sI13
F1.0
sI46
F1.0
sI50
F1.0
sI22
F1.0
sI90
F1.0
sI95
F1.0
sI118
F1.0
sI5
F1.0
ssbsg15
g0
(g16
g2
Ntp1017
Rp1018
(dp1019
g15
I1
sbsba(ics475_types
Instance
p1020
(dp1021
g10
(ics475_types
FeatureVector
p1022
(dp1023
g13
(dp1024
I65
F1.0
sI69
F1.0
sI92
F1.0
sI112
F1.0
sI80
F1.0
sI18
F1.0
sI21
F1.0
sI89
F1.0
sI60
F1.0
sI37
F1.0
ssbsg15
g0
(g16
g2
Ntp1025
Rp1026
(dp1027
g15
I1
sbsba(ics475_types
Instance
p1028
(dp1029
g10
(ics475_types
FeatureVector
p1030
(dp1031
g13
(dp1032
I65
F1.0
sI98
F1.0
sI81
F1.0
sI10
F1.0
sI46
F1.0
sI15
F1.0
sI49
F1.0
sI117
F1.0
sI22
F1.0
sI90
F1.0
ssbsg15
g0
(g16
g2
Ntp1033
Rp1034
(dp1035
g15
I-1
sbsba(ics475_types
Instance
p1036
(dp1037
g10
(ics475_types
FeatureVector
p1038
(dp1039
g13
(dp1040
I64
F1.0
sI33
F1.0
sI5
F1.0
sI38
F1.0
sI81
F1.0
sI111
F1.0
sI49
F1.0
sI18
F1.0
sI90
F1.0
sI60
F1.0
ssbsg15
g0
(g16
g2
Ntp1041
Rp1042
(dp1043
g15
I-1
sbsba(ics475_types
Instance
p1044
(dp1045
g10
(ics475_types
FeatureVector
p1046
(dp1047
g13
(dp1048
I64
F1.0
sI82
F1.0
sI118
F1.0
sI9
F1.0
sI45
F1.0
sI17
F1.0
sI50
F1.0
sI22
F1.0
sI89
F1.0
sI59
F1.0
ssbsg15
g0
(g16
g2
Ntp1049
Rp1050
(dp1051
g15
I1
sbsba(ics475_types
Instance
p1052
(dp1053
g10
(ics475_types
FeatureVector
p1054
(dp1055
g13
(dp1056
I65
F1.0
sI5
F1.0
sI38
F1.0
sI9
F1.0
sI79
F1.0
sI112
F1.0
sI55
F1.0
sI58
F1.0
sI70
F1.0
sI90
F1.0
ssbsg15
g0
(g16
g2
Ntp1057
Rp1058
(dp1059
g15
I1
sbsba(ics475_types
Instance
p1060
(dp1061
g10
(ics475_types
FeatureVector
p1062
(dp1063
g13
(dp1064
I65
F1.0
sI37
F1.0
sI14
F1.0
sI112
F1.0
sI50
F1.0
sI84
F1.0
sI117
F1.0
sI89
F1.0
sI92
F1.0
sI69
F1.0
ssbsg15
g0
(g16
g2
Ntp1065
Rp1066
(dp1067
g15
I-1
sbsba(ics475_types
Instance
p1068
(dp1069
g10
(ics475_types
FeatureVector
p1070
(dp1071
g13
(dp1072
I64
F1.0
sI38
F1.0
sI71
F1.0
sI10
F1.0
sI111
F1.0
sI49
F1.0
sI82
F1.0
sI89
F1.0
sI27
F1.0
sI74
F1.0
ssbsg15
g0
(g16
g2
Ntp1073
Rp1074
(dp1075
g15
I-1
sbsba(ics475_types
Instance
p1076
(dp1077
g10
(ics475_types
FeatureVector
p1078
(dp1079
g13
(dp1080
I65
F1.0
sI6
F1.0
sI72
F1.0
sI111
F1.0
sI80
F1.0
sI49
F1.0
sI21
F1.0
sI89
F1.0
sI60
F1.0
sI104
F1.0
ssbsg15
g0
(g16
g2
Ntp1081
Rp1082
(dp1083
g15
I1
sbsba(ics475_types
Instance
p1084
(dp1085
g10
(ics475_types
FeatureVector
p1086
(dp1087
g13
(dp1088
I66
F1.0
sI6
F1.0
sI71
F1.0
sI103
F1.0
sI46
F1.0
sI79
F1.0
sI112
F1.0
sI21
F1.0
sI90
F1.0
sI59
F1.0
ssbsg15
g0
(g16
g2
Ntp1089
Rp1090
(dp1091
g15
I-1
sbsba(ics475_types
Instance
p1092
(dp1093
g10
(ics475_types
FeatureVector
p1094
(dp1095
g13
(dp1096
I32
F1.0
sI98
F1.0
sI5
F1.0
sI74
F1.0
sI43
F1.0
sI45
F1.0
sI16
F1.0
sI89
F1.0
sI59
F1.0
sI92
F1.0
ssbsg15
g0
(g16
g2
Ntp1097
Rp1098
(dp1099
g15
I-1
sbsba(ics475_types
Instance
p1100
(dp1101
g10
(ics475_types
FeatureVector
p1102
(dp1103
g13
(dp1104
I36
F1.0
sI7
F1.0
sI74
F1.0
sI46
F1.0
sI111
F1.0
sI53
F1.0
sI24
F1.0
sI89
F1.0
sI92
F1.0
sI63
F1.0
ssbsg15
g0
(g16
g2
Ntp1105
Rp1106
(dp1107
g15
I1
sbsba(ics475_types
Instance
p1108
(dp1109
g10
(ics475_types
FeatureVector
p1110
(dp1111
g13
(dp1112
I37
F1.0
sI6
F1.0
sI73
F1.0
sI79
F1.0
sI112
F1.0
sI50
F1.0
sI19
F1.0
sI21
F1.0
sI90
F1.0
sI60
F1.0
ssbsg15
g0
(g16
g2
Ntp1113
Rp1114
(dp1115
g15
I1
sbsba(ics475_types
Instance
p1116
(dp1117
g10
(ics475_types
FeatureVector
p1118
(dp1119
g13
(dp1120
I64
F1.0
sI66
F1.0
sI5
F1.0
sI43
F1.0
sI82
F1.0
sI15
F1.0
sI112
F1.0
sI49
F1.0
sI18
F1.0
sI89
F1.0
ssbsg15
g0
(g16
g2
Ntp1121
Rp1122
(dp1123
g15
I-1
sbsba(ics475_types
Instance
p1124
(dp1125
g10
(ics475_types
FeatureVector
p1126
(dp1127
g13
(dp1128
I64
F1.0
sI5
F1.0
sI72
F1.0
sI73
F1.0
sI45
F1.0
sI111
F1.0
sI18
F1.0
sI24
F1.0
sI89
F1.0
sI92
F1.0
ssbsg15
g0
(g16
g2
Ntp1129
Rp1130
(dp1131
g15
I1
sbsba(ics475_types
Instance
p1132
(dp1133
g10
(ics475_types
FeatureVector
p1134
(dp1135
g13
(dp1136
I96
F1.0
sI66
F1.0
sI5
F1.0
sI10
F1.0
sI111
F1.0
sI18
F1.0
sI45
F1.0
sI50
F1.0
sI89
F1.0
sI59
F1.0
ssbsg15
g0
(g16
g2
Ntp1137
Rp1138
(dp1139
g15
I1
sbsba(ics475_types
Instance
p1140
(dp1141
g10
(ics475_types
FeatureVector
p1142
(dp1143
g13
(dp1144
I64
F1.0
sI6
F1.0
sI103
F1.0
sI9
F1.0
sI92
F1.0
sI49
F1.0
sI83
F1.0
sI73
F1.0
sI24
F1.0
sI60
F1.0
ssbsg15
g0
(g16
g2
Ntp1145
Rp1146
(dp1147
g15
I-1
sbsba(ics475_types
Instance
p1148
(dp1149
g10
(ics475_types
FeatureVector
p1150
(dp1151
g13
(dp1152
I66
F1.0
sI37
F1.0
sI111
F1.0
sI79
F1.0
sI49
F1.0
sI18
F1.0
sI20
F1.0
sI118
F1.0
sI90
F1.0
sI59
F1.0
ssbsg15
g0
(g16
g2
Ntp1153
Rp1154
(dp1155
g15
I-1
sbsba(ics475_types
Instance
p1156
(dp1157
g10
(ics475_types
FeatureVector
p1158
(dp1159
g13
(dp1160
I32
F1.0
sI66
F1.0
sI45
F1.0
sI111
F1.0
sI16
F1.0
sI49
F1.0
sI21
F1.0
sI118
F1.0
sI89
F1.0
sI94
F1.0
ssbsg15
g0
(g16
g2
Ntp1161
Rp1162
(dp1163
g15
I1
sbsba(ics475_types
Instance
p1164
(dp1165
g10
(ics475_types
FeatureVector
p1166
(dp1167
g13
(dp1168
I65
F1.0
sI97
F1.0
sI73
F1.0
sI112
F1.0
sI15
F1.0
sI92
F1.0
sI82
F1.0
sI22
F1.0
sI89
F1.0
sI60
F1.0
ssbsg15
g0
(g16
g2
Ntp1169
Rp1170
(dp1171
g15
I-1
sbsba(ics475_types
Instance
p1172
(dp1173
g10
(ics475_types
FeatureVector
p1174
(dp1175
g13
(dp1176
I64
F1.0
sI65
F1.0
sI6
F1.0
sI82
F1.0
sI15
F1.0
sI49
F1.0
sI18
F1.0
sI117
F1.0
sI89
F1.0
sI60
F1.0
ssbsg15
g0
(g16
g2
Ntp1177
Rp1178
(dp1179
g15
I-1
sbsba(ics475_types
Instance
p1180
(dp1181
g10
(ics475_types
FeatureVector
p1182
(dp1183
g13
(dp1184
I96
F1.0
sI66
F1.0
sI6
F1.0
sI39
F1.0
sI17
F1.0
sI50
F1.0
sI89
F1.0
sI24
F1.0
sI57
F1.0
sI91
F1.0
ssbsg15
g0
(g16
g2
Ntp1185
Rp1186
(dp1187
g15
I1
sbsba(ics475_types
Instance
p1188
(dp1189
g10
(ics475_types
FeatureVector
p1190
(dp1191
g13
(dp1192
I64
F1.0
sI66
F1.0
sI5
F1.0
sI9
F1.0
sI45
F1.0
sI81
F1.0
sI18
F1.0
sI24
F1.0
sI90
F1.0
sI59
F1.0
ssbsg15
g0
(g16
g2
Ntp1193
Rp1194
(dp1195
g15
I1
sbsba(ics475_types
Instance
p1196
(dp1197
g10
(ics475_types
FeatureVector
p1198
(dp1199
g13
(dp1200
I64
F1.0
sI5
F1.0
sI46
F1.0
sI51
F1.0
sI118
F1.0
sI24
F1.0
sI89
F1.0
sI59
F1.0
sI92
F1.0
sI37
F1.0
ssbsg15
g0
(g16
g2
Ntp1201
Rp1202
(dp1203
g15
I-1
sbsba(ics475_types
Instance
p1204
(dp1205
g10
(ics475_types
FeatureVector
p1206
(dp1207
g13
(dp1208
I97
F1.0
sI66
F1.0
sI82
F1.0
sI38
F1.0
sI9
F1.0
sI50
F1.0
sI45
F1.0
sI18
F1.0
sI117
F1.0
sI89
F1.0
ssbsg15
g0
(g16
g2
Ntp1209
Rp1210
(dp1211
g15
I1
sbsba(ics475_types
Instance
p1212
(dp1213
g10
(ics475_types
FeatureVector
p1214
(dp1215
g13
(dp1216
I65
F1.0
sI9
F1.0
sI74
F1.0
sI82
F1.0
sI49
F1.0
sI18
F1.0
sI21
F1.0
sI118
F1.0
sI89
F1.0
sI60
F1.0
ssbsg15
g0
(g16
g2
Ntp1217
Rp1218
(dp1219
g15
I-1
sbsba(ics475_types
Instance
p1220
(dp1221
g10
(ics475_types
FeatureVector
p1222
(dp1223
g13
(dp1224
I65
F1.0
sI98
F1.0
sI5
F1.0
sI81
F1.0
sI10
F1.0
sI46
F1.0
sI49
F1.0
sI21
F1.0
sI90
F1.0
sI60
F1.0
ssbsg15
g0
(g16
g2
Ntp1225
Rp1226
(dp1227
g15
I-1
sbsba(ics475_types
Instance
p1228
(dp1229
g10
(ics475_types
FeatureVector
p1230
(dp1231
g13
(dp1232
I91
F1.0
sI37
F1.0
sI9
F1.0
sI46
F1.0
sI81
F1.0
sI18
F1.0
sI20
F1.0
sI118
F1.0
sI90
F1.0
sI59
F1.0
ssbsg15
g0
(g16
g2
Ntp1233
Rp1234
(dp1235
g15
I1
sbsba(ics475_types
Instance
p1236
(dp1237
g10
(ics475_types
FeatureVector
p1238
(dp1239
g13
(dp1240
I65
F1.0
sI49
F1.0
sI10
F1.0
sI17
F1.0
sI117
F1.0
sI22
F1.0
sI90
F1.0
sI60
F1.0
sI74
F1.0
sI95
F1.0
ssbsg15
g0
(g16
g2
Ntp1241
Rp1242
(dp1243
g15
I-1
sbsba(ics475_types
Instance
p1244
(dp1245
g10
(ics475_types
FeatureVector
p1246
(dp1247
g13
(dp1248
I65
F1.0
sI6
F1.0
sI9
F1.0
sI82
F1.0
sI46
F1.0
sI18
F1.0
sI21
F1.0
sI89
F1.0
sI91
F1.0
sI60
F1.0
ssbsg15
g0
(g16
g2
Ntp1249
Rp1250
(dp1251
g15
I-1
sbsba(ics475_types
Instance
p1252
(dp1253
g10
(ics475_types
FeatureVector
p1254
(dp1255
g13
(dp1256
I66
F1.0
sI35
F1.0
sI5
F1.0
sI74
F1.0
sI81
F1.0
sI18
F1.0
sI24
F1.0
sI90
F1.0
sI91
F1.0
sI63
F1.0
ssbsg15
g0
(g16
g2
Ntp1257
Rp1258
(dp1259
g15
I-1
sbsba(ics475_types
Instance
p1260
(dp1261
g10
(ics475_types
FeatureVector
p1262
(dp1263
g13
(dp1264
I64
F1.0
sI65
F1.0
sI35
F1.0
sI5
F1.0
sI13
F1.0
sI81
F1.0
sI18
F1.0
sI24
F1.0
sI58
F1.0
sI90
F1.0
ssbsg15
g0
(g16
g2
Ntp1265
Rp1266
(dp1267
g15
I-1
sbsba(ics475_types
Instance
p1268
(dp1269
g10
(ics475_types
FeatureVector
p1270
(dp1271
g13
(dp1272
I96
F1.0
sI65
F1.0
sI37
F1.0
sI10
F1.0
sI45
F1.0
sI17
F1.0
sI50
F1.0
sI20
F1.0
sI89
F1.0
sI92
F1.0
ssbsg15
g0
(g16
g2
Ntp1273
Rp1274
(dp1275
g15
I1
sbsba(ics475_types
Instance
p1276
(dp1277
g10
(ics475_types
FeatureVector
p1278
(dp1279
g13
(dp1280
I33
F1.0
sI6
F1.0
sI65
F1.0
sI9
F1.0
sI46
F1.0
sI18
F1.0
sI21
F1.0
sI90
F1.0
sI60
F1.0
sI95
F1.0
ssbsg15
g0
(g16
g2
Ntp1281
Rp1282
(dp1283
g15
I1
sbsba(ics475_types
Instance
p1284
(dp1285
g10
(ics475_types
FeatureVector
p1286
(dp1287
g13
(dp1288
I65
F1.0
sI5
F1.0
sI9
F1.0
sI82
F1.0
sI112
F1.0
sI18
F1.0
sI89
F1.0
sI58
F1.0
sI60
F1.0
sI63
F1.0
ssbsg15
g0
(g16
g2
Ntp1289
Rp1290
(dp1291
g15
I-1
sbsba(ics475_types
Instance
p1292
(dp1293
g10
(ics475_types
FeatureVector
p1294
(dp1295
g13
(dp1296
I66
F1.0
sI91
F1.0
sI5
F1.0
sI10
F1.0
sI79
F1.0
sI112
F1.0
sI114
F1.0
sI21
F1.0
sI90
F1.0
sI59
F1.0
ssbsg15
g0
(g16
g2
Ntp1297
Rp1298
(dp1299
g15
I1
sbsba(ics475_types
Instance
p1300
(dp1301
g10
(ics475_types
FeatureVector
p1302
(dp1303
g13
(dp1304
I65
F1.0
sI37
F1.0
sI6
F1.0
sI81
F1.0
sI18
F1.0
sI52
F1.0
sI117
F1.0
sI90
F1.0
sI60
F1.0
sI63
F1.0
ssbsg15
g0
(g16
g2
Ntp1305
Rp1306
(dp1307
g15
I-1
sbsba(ics475_types
Instance
p1308
(dp1309
g10
(ics475_types
FeatureVector
p1310
(dp1311
g13
(dp1312
I64
F1.0
sI65
F1.0
sI6
F1.0
sI49
F1.0
sI13
F1.0
sI46
F1.0
sI17
F1.0
sI118
F1.0
sI89
F1.0
sI92
F1.0
ssbsg15
g0
(g16
g2
Ntp1313
Rp1314
(dp1315
g15
I-1
sbsba(ics475_types
Instance
p1316
(dp1317
g10
(ics475_types
FeatureVector
p1318
(dp1319
g13
(dp1320
I64
F1.0
sI66
F1.0
sI6
F1.0
sI45
F1.0
sI82
F1.0
sI116
F1.0
sI117
F1.0
sI23
F1.0
sI89
F1.0
sI59
F1.0
ssbsg15
g0
(g16
g2
Ntp1321
Rp1322
(dp1323
g15
I1
sbsba(ics475_types
Instance
p1324
(dp1325
g10
(ics475_types
FeatureVector
p1326
(dp1327
g13
(dp1328
I65
F1.0
sI49
F1.0
sI10
F1.0
sI46
F1.0
sI17
F1.0
sI82
F1.0
sI117
F1.0
sI22
F1.0
sI89
F1.0
sI92
F1.0
ssbsg15
g0
(g16
g2
Ntp1329
Rp1330
(dp1331
g15
I-1
sbsba(ics475_types
Instance
p1332
(dp1333
g10
(ics475_types
FeatureVector
p1334
(dp1335
g13
(dp1336
I38
F1.0
sI10
F1.0
sI111
F1.0
sI17
F1.0
sI82
F1.0
sI115
F1.0
sI89
F1.0
sI58
F1.0
sI59
F1.0
sI92
F1.0
ssbsg15
g0
(g16
g2
Ntp1337
Rp1338
(dp1339
g15
I-1
sbsba(ics475_types
Instance
p1340
(dp1341
g10
(ics475_types
FeatureVector
p1342
(dp1343
g13
(dp1344
I96
F1.0
sI33
F1.0
sI66
F1.0
sI81
F1.0
sI10
F1.0
sI98
F1.0
sI17
F1.0
sI114
F1.0
sI117
F1.0
sI61
F1.0
ssbsg15
g0
(g16
g2
Ntp1345
Rp1346
(dp1347
g15
I-1
sbsba(ics475_types
Instance
p1348
(dp1349
g10
(ics475_types
FeatureVector
p1350
(dp1351
g13
(dp1352
I96
F1.0
sI66
F1.0
sI35
F1.0
sI5
F1.0
sI112
F1.0
sI49
F1.0
sI22
F1.0
sI89
F1.0
sI59
F1.0
sI92
F1.0
ssbsg15
g0
(g16
g2
Ntp1353
Rp1354
(dp1355
g15
I-1
sbsba(ics475_types
Instance
p1356
(dp1357
g10
(ics475_types
FeatureVector
p1358
(dp1359
g13
(dp1360
I82
F1.0
sI5
F1.0
sI9
F1.0
sI45
F1.0
sI92
F1.0
sI18
F1.0
sI89
F1.0
sI58
F1.0
sI60
F1.0
sI61
F1.0
ssbsg15
g0
(g16
g2
Ntp1361
Rp1362
(dp1363
g15
I1
sbsba(ics475_types
Instance
p1364
(dp1365
g10
(ics475_types
FeatureVector
p1366
(dp1367
g13
(dp1368
I34
F1.0
sI66
F1.0
sI6
F1.0
sI38
F1.0
sI9
F1.0
sI45
F1.0
sI79
F1.0
sI21
F1.0
sI90
F1.0
sI91
F1.0
ssbsg15
g0
(g16
g2
Ntp1369
Rp1370
(dp1371
g15
I1
sbsba(ics475_types
Instance
p1372
(dp1373
g10
(ics475_types
FeatureVector
p1374
(dp1375
g13
(dp1376
I5
F1.0
sI9
F1.0
sI46
F1.0
sI18
F1.0
sI117
F1.0
sI90
F1.0
sI59
F1.0
sI92
F1.0
sI62
F1.0
sI95
F1.0
ssbsg15
g0
(g16
g2
Ntp1377
Rp1378
(dp1379
g15
I1
sbsba(ics475_types
Instance
p1380
(dp1381
g10
(ics475_types
FeatureVector
p1382
(dp1383
g13
(dp1384
I66
F1.0
sI91
F1.0
sI38
F1.0
sI112
F1.0
sI17
F1.0
sI82
F1.0
sI20
F1.0
sI89
F1.0
sI57
F1.0
sI59
F1.0
ssbsg15
g0
(g16
g2
Ntp1385
Rp1386
(dp1387
g15
I1
sbsba(ics475_types
Instance
p1388
(dp1389
g10
(ics475_types
FeatureVector
p1390
(dp1391
g13
(dp1392
I65
F1.0
sI98
F1.0
sI38
F1.0
sI33
F1.0
sI10
F1.0
sI17
F1.0
sI82
F1.0
sI89
F1.0
sI91
F1.0
sI60
F1.0
ssbsg15
g0
(g16
g2
Ntp1393
Rp1394
(dp1395
g15
I1
sbsba(ics475_types
Instance
p1396
(dp1397
g10
(ics475_types
FeatureVector
p1398
(dp1399
g13
(dp1400
I97
F1.0
sI35
F1.0
sI9
F1.0
sI74
F1.0
sI14
F1.0
sI80
F1.0
sI81
F1.0
sI22
F1.0
sI59
F1.0
sI92
F1.0
ssbsg15
g0
(g16
g2
Ntp1401
Rp1402
(dp1403
g15
I1
sbsba(ics475_types
Instance
p1404
(dp1405
g10
(ics475_types
FeatureVector
p1406
(dp1407
g13
(dp1408
I96
F1.0
sI66
F1.0
sI38
F1.0
sI45
F1.0
sI17
F1.0
sI20
F1.0
sI23
F1.0
sI89
F1.0
sI59
F1.0
sI92
F1.0
ssbsg15
g0
(g16
g2
Ntp1409
Rp1410
(dp1411
g15
I1
sbsba(ics475_types
Instance
p1412
(dp1413
g10
(ics475_types
FeatureVector
p1414
(dp1415
g13
(dp1416
I5
F1.0
sI92
F1.0
sI82
F1.0
sI18
F1.0
sI115
F1.0
sI21
F1.0
sI24
F1.0
sI89
F1.0
sI60
F1.0
sI61
F1.0
ssbsg15
g0
(g16
g2
Ntp1417
Rp1418
(dp1419
g15
I1
sbsba(ics475_types
Instance
p1420
(dp1421
g10
(ics475_types
FeatureVector
p1422
(dp1423
g13
(dp1424
I96
F1.0
sI98
F1.0
sI6
F1.0
sI9
F1.0
sI14
F1.0
sI49
F1.0
sI21
F1.0
sI89
F1.0
sI59
F1.0
sI62
F1.0
ssbsg15
g0
(g16
g2
Ntp1425
Rp1426
(dp1427
g15
I-1
sbsba(ics475_types
Instance
p1428
(dp1429
g10
(ics475_types
FeatureVector
p1430
(dp1431
g13
(dp1432
I66
F1.0
sI5
F1.0
sI81
F1.0
sI73
F1.0
sI10
F1.0
sI45
F1.0
sI112
F1.0
sI17
F1.0
sI22
F1.0
sI90
F1.0
ssbsg15
g0
(g16
g2
Ntp1433
Rp1434
(dp1435
g15
I-1
sbsba(ics475_types
Instance
p1436
(dp1437
g10
(ics475_types
FeatureVector
p1438
(dp1439
g13
(dp1440
I64
F1.0
sI66
F1.0
sI5
F1.0
sI38
F1.0
sI13
F1.0
sI118
F1.0
sI23
F1.0
sI90
F1.0
sI59
F1.0
sI95
F1.0
ssbsg15
g0
(g16
g2
Ntp1441
Rp1442
(dp1443
g15
I1
sbsba(ics475_types
Instance
p1444
(dp1445
g10
(ics475_types
FeatureVector
p1446
(dp1447
g13
(dp1448
I98
F1.0
sI35
F1.0
sI74
F1.0
sI14
F1.0
sI111
F1.0
sI49
F1.0
sI82
F1.0
sI83
F1.0
sI22
F1.0
sI89
F1.0
ssbsg15
g0
(g16
g2
Ntp1449
Rp1450
(dp1451
g15
I-1
sbsba(ics475_types
Instance
p1452
(dp1453
g10
(ics475_types
FeatureVector
p1454
(dp1455
g13
(dp1456
I34
F1.0
sI100
F1.0
sI5
F1.0
sI10
F1.0
sI49
F1.0
sI82
F1.0
sI117
F1.0
sI89
F1.0
sI59
F1.0
sI62
F1.0
ssbsg15
g0
(g16
g2
Ntp1457
Rp1458
(dp1459
g15
I-1
sbsba(ics475_types
Instance
p1460
(dp1461
g10
(ics475_types
FeatureVector
p1462
(dp1463
g13
(dp1464
I65
F1.0
sI37
F1.0
sI6
F1.0
sI97
F1.0
sI72
F1.0
sI73
F1.0
sI79
F1.0
sI22
F1.0
sI88
F1.0
sI60
F1.0
ssbsg15
g0
(g16
g2
Ntp1465
Rp1466
(dp1467
g15
I-1
sbsba(ics475_types
Instance
p1468
(dp1469
g10
(ics475_types
FeatureVector
p1470
(dp1471
g13
(dp1472
I66
F1.0
sI37
F1.0
sI6
F1.0
sI39
F1.0
sI73
F1.0
sI22
F1.0
sI87
F1.0
sI56
F1.0
sI90
F1.0
sI59
F1.0
ssbsg15
g0
(g16
g2
Ntp1473
Rp1474
(dp1475
g15
I1
sbsba(ics475_types
Instance
p1476
(dp1477
g10
(ics475_types
FeatureVector
p1478
(dp1479
g13
(dp1480
I68
F1.0
sI5
F1.0
sI16
F1.0
sI51
F1.0
sI21
F1.0
sI118
F1.0
sI87
F1.0
sI60
F1.0
sI61
F1.0
sI94
F1.0
ssbsg15
g0
(g16
g2
Ntp1481
Rp1482
(dp1483
g15
I-1
sbsba(ics475_types
Instance
p1484
(dp1485
g10
(ics475_types
FeatureVector
p1486
(dp1487
g13
(dp1488
I33
F1.0
sI2
F1.0
sI37
F1.0
sI6
F1.0
sI65
F1.0
sI9
F1.0
sI22
F1.0
sI88
F1.0
sI89
F1.0
sI60
F1.0
ssbsg15
g0
(g16
g2
Ntp1489
Rp1490
(dp1491
g15
I1
sbsba(ics475_types
Instance
p1492
(dp1493
g10
(ics475_types
FeatureVector
p1494
(dp1495
g13
(dp1496
I66
F1.0
sI70
F1.0
sI40
F1.0
sI77
F1.0
sI111
F1.0
sI104
F1.0
sI19
F1.0
sI117
F1.0
sI88
F1.0
sI59
F1.0
ssbsg15
g0
(g16
g2
Ntp1497
Rp1498
(dp1499
g15
I1
sbsba(ics475_types
Instance
p1500
(dp1501
g10
(ics475_types
FeatureVector
p1502
(dp1503
g13
(dp1504
I96
F1.0
sI65
F1.0
sI5
F1.0
sI38
F1.0
sI10
F1.0
sI43
F1.0
sI15
F1.0
sI87
F1.0
sI56
F1.0
sI74
F1.0
ssbsg15
g0
(g16
g2
Ntp1505
Rp1506
(dp1507
g15
I1
sbsba(ics475_types
Instance
p1508
(dp1509
g10
(ics475_types
FeatureVector
p1510
(dp1511
g13
(dp1512
I66
F1.0
sI37
F1.0
sI6
F1.0
sI44
F1.0
sI82
F1.0
sI115
F1.0
sI21
F1.0
sI87
F1.0
sI56
F1.0
sI61
F1.0
ssbsg15
g0
(g16
g2
Ntp1513
Rp1514
(dp1515
g15
I1
sbsba(ics475_types
Instance
p1516
(dp1517
g10
(ics475_types
FeatureVector
p1518
(dp1519
g13
(dp1520
I65
F1.0
sI11
F1.0
sI37
F1.0
sI72
F1.0
sI43
F1.0
sI79
F1.0
sI88
F1.0
sI22
F1.0
sI56
F1.0
sI104
F1.0
ssbsg15
g0
(g16
g2
Ntp1521
Rp1522
(dp1523
g15
I-1
sbsba(ics475_types
Instance
p1524
(dp1525
g10
(ics475_types
FeatureVector
p1526
(dp1527
g13
(dp1528
I1
F1.0
sI66
F1.0
sI6
F1.0
sI39
F1.0
sI74
F1.0
sI12
F1.0
sI77
F1.0
sI55
F1.0
sI88
F1.0
sI59
F1.0
ssbsg15
g0
(g16
g2
Ntp1529
Rp1530
(dp1531
g15
I1
sbsba(ics475_types
Instance
p1532
(dp1533
g10
(ics475_types
FeatureVector
p1534
(dp1535
g13
(dp1536
I34
F1.0
sI98
F1.0
sI5
F1.0
sI38
F1.0
sI43
F1.0
sI66
F1.0
sI21
F1.0
sI87
F1.0
sI90
F1.0
sI61
F1.0
ssbsg15
g0
(g16
g2
Ntp1537
Rp1538
(dp1539
g15
I1
sbsba(ics475_types
Instance
p1540
(dp1541
g10
(ics475_types
FeatureVector
p1542
(dp1543
g13
(dp1544
I38
F1.0
sI39
F1.0
sI9
F1.0
sI77
F1.0
sI18
F1.0
sI116
F1.0
sI88
F1.0
sI91
F1.0
sI60
F1.0
sI61
F1.0
ssbsg15
g0
(g16
g2
Ntp1545
Rp1546
(dp1547
g15
I-1
sbsba(ics475_types
Instance
p1548
(dp1549
g10
(ics475_types
FeatureVector
p1550
(dp1551
g13
(dp1552
I33
F1.0
sI66
F1.0
sI36
F1.0
sI37
F1.0
sI111
F1.0
sI80
F1.0
sI22
F1.0
sI87
F1.0
sI92
F1.0
sI61
F1.0
ssbsg15
g0
(g16
g2
Ntp1553
Rp1554
(dp1555
g15
I1
sbsba(ics475_types
Instance
p1556
(dp1557
g10
(ics475_types
FeatureVector
p1558
(dp1559
g13
(dp1560
I97
F1.0
sI66
F1.0
sI38
F1.0
sI13
F1.0
sI80
F1.0
sI50
F1.0
sI51
F1.0
sI22
F1.0
sI89
F1.0
sI63
F1.0
ssbsg15
g0
(g16
g2
Ntp1561
Rp1562
(dp1563
g15
I-1
sbsba(ics475_types
Instance
p1564
(dp1565
g10
(ics475_types
FeatureVector
p1566
(dp1567
g13
(dp1568
I66
F1.0
sI37
F1.0
sI6
F1.0
sI111
F1.0
sI115
F1.0
sI22
F1.0
sI87
F1.0
sI56
F1.0
sI90
F1.0
sI59
F1.0
ssbsg15
g0
(g16
g2
Ntp1569
Rp1570
(dp1571
g15
I1
sbsba(ics475_types
Instance
p1572
(dp1573
g10
(ics475_types
FeatureVector
p1574
(dp1575
g13
(dp1576
I64
F1.0
sI65
F1.0
sI37
F1.0
sI40
F1.0
sI78
F1.0
sI15
F1.0
sI116
F1.0
sI89
F1.0
sI91
F1.0
sI60
F1.0
ssbsg15
g0
(g16
g2
Ntp1577
Rp1578
(dp1579
g15
I1
sbsba(ics475_types
Instance
p1580
(dp1581
g10
(ics475_types
FeatureVector
p1582
(dp1583
g13
(dp1584
I65
F1.0
sI38
F1.0
sI97
F1.0
sI74
F1.0
sI43
F1.0
sI80
F1.0
sI52
F1.0
sI21
F1.0
sI89
F1.0
sI26
F1.0
ssbsg15
g0
(g16
g2
Ntp1585
Rp1586
(dp1587
g15
I-1
sbsba(ics475_types
Instance
p1588
(dp1589
g10
(ics475_types
FeatureVector
p1590
(dp1591
g13
(dp1592
I1
F1.0
sI6
F1.0
sI39
F1.0
sI73
F1.0
sI44
F1.0
sI16
F1.0
sI87
F1.0
sI60
F1.0
sI61
F1.0
sI94
F1.0
ssbsg15
g0
(g16
g2
Ntp1593
Rp1594
(dp1595
g15
I-1
sbsba(ics475_types
Instance
p1596
(dp1597
g10
(ics475_types
FeatureVector
p1598
(dp1599
g13
(dp1600
I66
F1.0
sI36
F1.0
sI37
F1.0
sI39
F1.0
sI13
F1.0
sI80
F1.0
sI52
F1.0
sI22
F1.0
sI89
F1.0
sI59
F1.0
ssbsg15
g0
(g16
g2
Ntp1601
Rp1602
(dp1603
g15
I1
sbsba(ics475_types
Instance
p1604
(dp1605
g10
(ics475_types
FeatureVector
p1606
(dp1607
g13
(dp1608
I66
F1.0
sI5
F1.0
sI38
F1.0
sI39
F1.0
sI74
F1.0
sI12
F1.0
sI78
F1.0
sI89
F1.0
sI61
F1.0
sI63
F1.0
ssbsg15
g0
(g16
g2
Ntp1609
Rp1610
(dp1611
g15
I1
sbsba(ics475_types
Instance
p1612
(dp1613
g10
(ics475_types
FeatureVector
p1614
(dp1615
g13
(dp1616
I65
F1.0
sI5
F1.0
sI9
F1.0
sI43
F1.0
sI14
F1.0
sI22
F1.0
sI87
F1.0
sI90
F1.0
sI92
F1.0
sI62
F1.0
ssbsg15
g0
(g16
g2
Ntp1617
Rp1618
(dp1619
g15
I-1
sbsba(ics475_types
Instance
p1620
(dp1621
g10
(ics475_types
FeatureVector
p1622
(dp1623
g13
(dp1624
I2
F1.0
sI38
F1.0
sI39
F1.0
sI87
F1.0
sI77
F1.0
sI112
F1.0
sI86
F1.0
sI55
F1.0
sI60
F1.0
sI61
F1.0
ssbsg15
g0
(g16
g2
Ntp1625
Rp1626
(dp1627
g15
I1
sbsba(ics475_types
Instance
p1628
(dp1629
g10
(ics475_types
FeatureVector
p1630
(dp1631
g13
(dp1632
I65
F1.0
sI37
F1.0
sI112
F1.0
sI78
F1.0
sI16
F1.0
sI20
F1.0
sI87
F1.0
sI91
F1.0
sI60
F1.0
sI69
F1.0
ssbsg15
g0
(g16
g2
Ntp1633
Rp1634
(dp1635
g15
I1
sbsba(ics475_types
Instance
p1636
(dp1637
g10
(ics475_types
FeatureVector
p1638
(dp1639
g13
(dp1640
I65
F1.0
sI37
F1.0
sI44
F1.0
sI15
F1.0
sI22
F1.0
sI55
F1.0
sI88
F1.0
sI60
F1.0
sI118
F1.0
sI95
F1.0
ssbsg15
g0
(g16
g2
Ntp1641
Rp1642
(dp1643
g15
I-1
sbsba(ics475_types
Instance
p1644
(dp1645
g10
(ics475_types
FeatureVector
p1646
(dp1647
g13
(dp1648
I65
F1.0
sI38
F1.0
sI74
F1.0
sI43
F1.0
sI15
F1.0
sI22
F1.0
sI88
F1.0
sI91
F1.0
sI60
F1.0
sI93
F1.0
ssbsg15
g0
(g16
g2
Ntp1649
Rp1650
(dp1651
g15
I-1
sbsba(ics475_types
Instance
p1652
(dp1653
g10
(ics475_types
FeatureVector
p1654
(dp1655
g13
(dp1656
I112
F1.0
sI66
F1.0
sI5
F1.0
sI40
F1.0
sI15
F1.0
sI80
F1.0
sI51
F1.0
sI89
F1.0
sI59
F1.0
sI62
F1.0
ssbsg15
g0
(g16
g2
Ntp1657
Rp1658
(dp1659
g15
I-1
sbsba(ics475_types
Instance
p1660
(dp1661
g10
(ics475_types
FeatureVector
p1662
(dp1663
g13
(dp1664
I66
F1.0
sI5
F1.0
sI38
F1.0
sI40
F1.0
sI15
F1.0
sI80
F1.0
sI51
F1.0
sI87
F1.0
sI59
F1.0
sI62
F1.0
ssbsg15
g0
(g16
g2
Ntp1665
Rp1666
(dp1667
g15
I-1
sbsba(ics475_types
Instance
p1668
(dp1669
g10
(ics475_types
FeatureVector
p1670
(dp1671
g13
(dp1672
I65
F1.0
sI40
F1.0
sI76
F1.0
sI13
F1.0
sI79
F1.0
sI21
F1.0
sI90
F1.0
sI91
F1.0
sI60
F1.0
sI94
F1.0
ssbsg15
g0
(g16
g2
Ntp1673
Rp1674
(dp1675
g15
I-1
sbsba(ics475_types
Instance
p1676
(dp1677
g10
(ics475_types
FeatureVector
p1678
(dp1679
g13
(dp1680
I66
F1.0
sI115
F1.0
sI37
F1.0
sI6
F1.0
sI74
F1.0
sI80
F1.0
sI19
F1.0
sI22
F1.0
sI59
F1.0
sI95
F1.0
ssbsg15
g0
(g16
g2
Ntp1681
Rp1682
(dp1683
g15
I-1
sbsba(ics475_types
Instance
p1684
(dp1685
g10
(ics475_types
FeatureVector
p1686
(dp1687
g13
(dp1688
I2
F1.0
sI37
F1.0
sI6
F1.0
sI40
F1.0
sI66
F1.0
sI78
F1.0
sI109
F1.0
sI51
F1.0
sI87
F1.0
sI59
F1.0
ssbsg15
g0
(g16
g2
Ntp1689
Rp1690
(dp1691
g15
I1
sbsba(ics475_types
Instance
p1692
(dp1693
g10
(ics475_types
FeatureVector
p1694
(dp1695
g13
(dp1696
I65
F1.0
sI5
F1.0
sI39
F1.0
sI74
F1.0
sI79
F1.0
sI52
F1.0
sI22
F1.0
sI88
F1.0
sI59
F1.0
sI118
F1.0
ssbsg15
g0
(g16
g2
Ntp1697
Rp1698
(dp1699
g15
I1
sbsba(ics475_types
Instance
p1700
(dp1701
g10
(ics475_types
FeatureVector
p1702
(dp1703
g13
(dp1704
I65
F1.0
sI37
F1.0
sI40
F1.0
sI92
F1.0
sI43
F1.0
sI76
F1.0
sI77
F1.0
sI111
F1.0
sI80
F1.0
sI60
F1.0
ssbsg15
g0
(g16
g2
Ntp1705
Rp1706
(dp1707
g15
I-1
sbsba(ics475_types
Instance
p1708
(dp1709
g10
(ics475_types
FeatureVector
p1710
(dp1711
g13
(dp1712
I65
F1.0
sI69
F1.0
sI38
F1.0
sI39
F1.0
sI12
F1.0
sI77
F1.0
sI50
F1.0
sI90
F1.0
sI91
F1.0
sI60
F1.0
ssbsg15
g0
(g16
g2
Ntp1713
Rp1714
(dp1715
g15
I-1
sbsba(ics475_types
Instance
p1716
(dp1717
g10
(ics475_types
FeatureVector
p1718
(dp1719
g13
(dp1720
I65
F1.0
sI38
F1.0
sI97
F1.0
sI43
F1.0
sI15
F1.0
sI80
F1.0
sI52
F1.0
sI22
F1.0
sI60
F1.0
sI95
F1.0
ssbsg15
g0
(g16
g2
Ntp1721
Rp1722
(dp1723
g15
I-1
sbsba(ics475_types
Instance
p1724
(dp1725
g10
(ics475_types
FeatureVector
p1726
(dp1727
g13
(dp1728
I2
F1.0
sI38
F1.0
sI11
F1.0
sI66
F1.0
sI78
F1.0
sI19
F1.0
sI110
F1.0
sI87
F1.0
sI59
F1.0
sI93
F1.0
ssbsg15
g0
(g16
g2
Ntp1729
Rp1730
(dp1731
g15
I-1
sbsba(ics475_types
Instance
p1732
(dp1733
g10
(ics475_types
FeatureVector
p1734
(dp1735
g13
(dp1736
I65
F1.0
sI97
F1.0
sI40
F1.0
sI15
F1.0
sI88
F1.0
sI51
F1.0
sI22
F1.0
sI56
F1.0
sI89
F1.0
sI60
F1.0
ssbsg15
g0
(g16
g2
Ntp1737
Rp1738
(dp1739
g15
I-1
sbsba(ics475_types
Instance
p1740
(dp1741
g10
(ics475_types
FeatureVector
p1742
(dp1743
g13
(dp1744
I2
F1.0
sI5
F1.0
sI38
F1.0
sI39
F1.0
sI104
F1.0
sI66
F1.0
sI80
F1.0
sI51
F1.0
sI87
F1.0
sI59
F1.0
ssbsg15
g0
(g16
g2
Ntp1745
Rp1746
(dp1747
g15
I1
sbsba(ics475_types
Instance
p1748
(dp1749
g10
(ics475_types
FeatureVector
p1750
(dp1751
g13
(dp1752
I66
F1.0
sI5
F1.0
sI14
F1.0
sI112
F1.0
sI81
F1.0
sI22
F1.0
sI90
F1.0
sI59
F1.0
sI69
F1.0
sI37
F1.0
ssbsg15
g0
(g16
g2
Ntp1753
Rp1754
(dp1755
g15
I-1
sbsba(ics475_types
Instance
p1756
(dp1757
g10
(ics475_types
FeatureVector
p1758
(dp1759
g13
(dp1760
I66
F1.0
sI37
F1.0
sI6
F1.0
sI12
F1.0
sI19
F1.0
sI52
F1.0
sI86
F1.0
sI55
F1.0
sI59
F1.0
sI93
F1.0
ssbsg15
g0
(g16
g2
Ntp1761
Rp1762
(dp1763
g15
I1
sbsba(ics475_types
Instance
p1764
(dp1765
g10
(ics475_types
FeatureVector
p1766
(dp1767
g13
(dp1768
I65
F1.0
sI6
F1.0
sI74
F1.0
sI11
F1.0
sI13
F1.0
sI20
F1.0
sI22
F1.0
sI90
F1.0
sI91
F1.0
sI95
F1.0
ssbsg15
g0
(g16
g2
Ntp1769
Rp1770
(dp1771
g15
I1
sbsba(ics475_types
Instance
p1772
(dp1773
g10
(ics475_types
FeatureVector
p1774
(dp1775
g13
(dp1776
I1
F1.0
sI35
F1.0
sI5
F1.0
sI65
F1.0
sI40
F1.0
sI78
F1.0
sI79
F1.0
sI52
F1.0
sI22
F1.0
sI60
F1.0
ssbsg15
g0
(g16
g2
Ntp1777
Rp1778
(dp1779
g15
I-1
sbsba(ics475_types
Instance
p1780
(dp1781
g10
(ics475_types
FeatureVector
p1782
(dp1783
g13
(dp1784
I66
F1.0
sI91
F1.0
sI37
F1.0
sI70
F1.0
sI40
F1.0
sI76
F1.0
sI13
F1.0
sI80
F1.0
sI89
F1.0
sI59
F1.0
ssbsg15
g0
(g16
g2
Ntp1785
Rp1786
(dp1787
g15
I-1
sbsba(ics475_types
Instance
p1788
(dp1789
g10
(ics475_types
FeatureVector
p1790
(dp1791
g13
(dp1792
I65
F1.0
sI69
F1.0
sI75
F1.0
sI14
F1.0
sI79
F1.0
sI52
F1.0
sI21
F1.0
sI24
F1.0
sI90
F1.0
sI92
F1.0
ssbsg15
g0
(g16
g2
Ntp1793
Rp1794
(dp1795
g15
I-1
sbsba(ics475_types
Instance
p1796
(dp1797
g10
(ics475_types
FeatureVector
p1798
(dp1799
g13
(dp1800
I66
F1.0
sI40
F1.0
sI75
F1.0
sI44
F1.0
sI78
F1.0
sI104
F1.0
sI115
F1.0
sI21
F1.0
sI59
F1.0
sI85
F1.0
ssbsg15
g0
(g16
g2
Ntp1801
Rp1802
(dp1803
g15
I-1
sbsba(ics475_types
Instance
p1804
(dp1805
g10
(ics475_types
FeatureVector
p1806
(dp1807
g13
(dp1808
I65
F1.0
sI2
F1.0
sI6
F1.0
sI40
F1.0
sI73
F1.0
sI48
F1.0
sI81
F1.0
sI19
F1.0
sI21
F1.0
sI88
F1.0
ssbsg15
g0
(g16
g2
Ntp1809
Rp1810
(dp1811
g15
I1
sbsba(ics475_types
Instance
p1812
(dp1813
g10
(ics475_types
FeatureVector
p1814
(dp1815
g13
(dp1816
I65
F1.0
sI5
F1.0
sI40
F1.0
sI73
F1.0
sI44
F1.0
sI79
F1.0
sI52
F1.0
sI21
F1.0
sI118
F1.0
sI88
F1.0
ssbsg15
g0
(g16
g2
Ntp1817
Rp1818
(dp1819
g15
I1
sbsba(ics475_types
Instance
p1820
(dp1821
g10
(ics475_types
FeatureVector
p1822
(dp1823
g13
(dp1824
I112
F1.0
sI66
F1.0
sI5
F1.0
sI74
F1.0
sI43
F1.0
sI80
F1.0
sI22
F1.0
sI87
F1.0
sI61
F1.0
sI37
F1.0
ssbsg15
g0
(g16
g2
Ntp1825
Rp1826
(dp1827
g15
I1
sbsba(ics475_types
Instance
p1828
(dp1829
g10
(ics475_types
FeatureVector
p1830
(dp1831
g13
(dp1832
I33
F1.0
sI2
F1.0
sI6
F1.0
sI65
F1.0
sI103
F1.0
sI110
F1.0
sI80
F1.0
sI21
F1.0
sI87
F1.0
sI60
F1.0
ssbsg15
g0
(g16
g2
Ntp1833
Rp1834
(dp1835
g15
I1
sbsba(ics475_types
Instance
p1836
(dp1837
g10
(ics475_types
FeatureVector
p1838
(dp1839
g13
(dp1840
I65
F1.0
sI2
F1.0
sI39
F1.0
sI9
F1.0
sI77
F1.0
sI110
F1.0
sI48
F1.0
sI22
F1.0
sI88
F1.0
sI91
F1.0
ssbsg15
g0
(g16
g2
Ntp1841
Rp1842
(dp1843
g15
I1
sbsba(ics475_types
Instance
p1844
(dp1845
g10
(ics475_types
FeatureVector
p1846
(dp1847
g13
(dp1848
I2
F1.0
sI6
F1.0
sI73
F1.0
sI10
F1.0
sI66
F1.0
sI111
F1.0
sI21
F1.0
sI88
F1.0
sI61
F1.0
sI95
F1.0
ssbsg15
g0
(g16
g2
Ntp1849
Rp1850
(dp1851
g15
I1
sbsba(ics475_types
Instance
p1852
(dp1853
g10
(ics475_types
FeatureVector
p1854
(dp1855
g13
(dp1856
I64
F1.0
sI5
F1.0
sI40
F1.0
sI73
F1.0
sI77
F1.0
sI80
F1.0
sI50
F1.0
sI21
F1.0
sI92
F1.0
sI61
F1.0
ssbsg15
g0
(g16
g2
Ntp1857
Rp1858
(dp1859
g15
I1
sbsba(ics475_types
Instance
p1860
(dp1861
g10
(ics475_types
FeatureVector
p1862
(dp1863
g13
(dp1864
I64
F1.0
sI40
F1.0
sI73
F1.0
sI109
F1.0
sI80
F1.0
sI50
F1.0
sI21
F1.0
sI89
F1.0
sI92
F1.0
sI61
F1.0
ssbsg15
g0
(g16
g2
Ntp1865
Rp1866
(dp1867
g15
I1
sbsba(ics475_types
Instance
p1868
(dp1869
g10
(ics475_types
FeatureVector
p1870
(dp1871
g13
(dp1872
I96
F1.0
sI34
F1.0
sI69
F1.0
sI66
F1.0
sI18
F1.0
sI116
F1.0
sI21
F1.0
sI89
F1.0
sI91
F1.0
sI61
F1.0
ssbsg15
g0
(g16
g2
Ntp1873
Rp1874
(dp1875
g15
I-1
sbsba(ics475_types
Instance
p1876
(dp1877
g10
(ics475_types
FeatureVector
p1878
(dp1879
g13
(dp1880
I69
F1.0
sI39
F1.0
sI77
F1.0
sI14
F1.0
sI80
F1.0
sI110
F1.0
sI59
F1.0
sI92
F1.0
sI62
F1.0
sI37
F1.0
ssbsg15
g0
(g16
g2
Ntp1881
Rp1882
(dp1883
g15
I1
sbsba(ics475_types
Instance
p1884
(dp1885
g10
(ics475_types
FeatureVector
p1886
(dp1887
g13
(dp1888
I34
F1.0
sI6
F1.0
sI9
F1.0
sI66
F1.0
sI110
F1.0
sI79
F1.0
sI21
F1.0
sI73
F1.0
sI90
F1.0
sI91
F1.0
ssbsg15
g0
(g16
g2
Ntp1889
Rp1890
(dp1891
g15
I-1
sbsba(ics475_types
Instance
p1892
(dp1893
g10
(ics475_types
FeatureVector
p1894
(dp1895
g13
(dp1896
I65
F1.0
sI69
F1.0
sI10
F1.0
sI14
F1.0
sI79
F1.0
sI17
F1.0
sI50
F1.0
sI90
F1.0
sI91
F1.0
sI74
F1.0
ssbsg15
g0
(g16
g2
Ntp1897
Rp1898
(dp1899
g15
I-1
sbsba(ics475_types
Instance
p1900
(dp1901
g10
(ics475_types
FeatureVector
p1902
(dp1903
g13
(dp1904
I64
F1.0
sI33
F1.0
sI6
F1.0
sI65
F1.0
sI39
F1.0
sI77
F1.0
sI110
F1.0
sI115
F1.0
sI90
F1.0
sI62
F1.0
ssbsg15
g0
(g16
g2
Ntp1905
Rp1906
(dp1907
g15
I-1
sbsba(ics475_types
Instance
p1908
(dp1909
g10
(ics475_types
FeatureVector
p1910
(dp1911
g13
(dp1912
I65
F1.0
sI40
F1.0
sI9
F1.0
sI77
F1.0
sI80
F1.0
sI50
F1.0
sI20
F1.0
sI73
F1.0
sI23
F1.0
sI92
F1.0
ssbsg15
g0
(g16
g2
Ntp1913
Rp1914
(dp1915
g15
I-1
sbsba(ics475_types
Instance
p1916
(dp1917
g10
(ics475_types
FeatureVector
p1918
(dp1919
g13
(dp1920
I96
F1.0
sI65
F1.0
sI34
F1.0
sI6
F1.0
sI44
F1.0
sI79
F1.0
sI49
F1.0
sI21
F1.0
sI60
F1.0
sI63
F1.0
ssbsg15
g0
(g16
g2
Ntp1921
Rp1922
(dp1923
g15
I-1
sbsba(ics475_types
Instance
p1924
(dp1925
g10
(ics475_types
FeatureVector
p1926
(dp1927
g13
(dp1928
I6
F1.0
sI39
F1.0
sI92
F1.0
sI10
F1.0
sI103
F1.0
sI77
F1.0
sI19
F1.0
sI90
F1.0
sI60
F1.0
sI61
F1.0
ssbsg15
g0
(g16
g2
Ntp1929
Rp1930
(dp1931
g15
I1
sbsba(ics475_types
Instance
p1932
(dp1933
g10
(ics475_types
FeatureVector
p1934
(dp1935
g13
(dp1936
I66
F1.0
sI35
F1.0
sI37
F1.0
sI40
F1.0
sI74
F1.0
sI79
F1.0
sI116
F1.0
sI86
F1.0
sI59
F1.0
sI63
F1.0
ssbsg15
g0
(g16
g2
Ntp1937
Rp1938
(dp1939
g15
I-1
sbsba(ics475_types
Instance
p1940
(dp1941
g10
(ics475_types
FeatureVector
p1942
(dp1943
g13
(dp1944
I33
F1.0
sI36
F1.0
sI6
F1.0
sI65
F1.0
sI74
F1.0
sI39
F1.0
sI109
F1.0
sI80
F1.0
sI89
F1.0
sI60
F1.0
ssbsg15
g0
(g16
g2
Ntp1945
Rp1946
(dp1947
g15
I1
sbsba(ics475_types
Instance
p1948
(dp1949
g10
(ics475_types
FeatureVector
p1950
(dp1951
g13
(dp1952
I66
F1.0
sI6
F1.0
sI10
F1.0
sI98
F1.0
sI79
F1.0
sI49
F1.0
sI21
F1.0
sI90
F1.0
sI59
F1.0
sI117
F1.0
ssbsg15
g0
(g16
g2
Ntp1953
Rp1954
(dp1955
g15
I-1
sbsba(ics475_types
Instance
p1956
(dp1957
g10
(ics475_types
FeatureVector
p1958
(dp1959
g13
(dp1960
I65
F1.0
sI38
F1.0
sI74
F1.0
sI43
F1.0
sI79
F1.0
sI112
F1.0
sI82
F1.0
sI21
F1.0
sI23
F1.0
sI60
F1.0
ssbsg15
g0
(g16
g2
Ntp1961
Rp1962
(dp1963
g15
I-1
sbsba(ics475_types
Instance
p1964
(dp1965
g10
(ics475_types
FeatureVector
p1966
(dp1967
g13
(dp1968
I34
F1.0
sI37
F1.0
sI9
F1.0
sI66
F1.0
sI110
F1.0
sI79
F1.0
sI22
F1.0
sI73
F1.0
sI90
F1.0
sI91
F1.0
ssbsg15
g0
(g16
g2
Ntp1969
Rp1970
(dp1971
g15
I1
sbsba(ics475_types
Instance
p1972
(dp1973
g10
(ics475_types
FeatureVector
p1974
(dp1975
g13
(dp1976
I65
F1.0
sI6
F1.0
sI38
F1.0
sI97
F1.0
sI9
F1.0
sI74
F1.0
sI103
F1.0
sI79
F1.0
sI90
F1.0
sI60
F1.0
ssbsg15
g0
(g16
g2
Ntp1977
Rp1978
(dp1979
g15
I1
sbsba(ics475_types
Instance
p1980
(dp1981
g10
(ics475_types
FeatureVector
p1982
(dp1983
g13
(dp1984
I33
F1.0
sI66
F1.0
sI70
F1.0
sI9
F1.0
sI112
F1.0
sI80
F1.0
sI22
F1.0
sI73
F1.0
sI89
F1.0
sI91
F1.0
ssbsg15
g0
(g16
g2
Ntp1985
Rp1986
(dp1987
g15
I-1
sbsba(ics475_types
Instance
p1988
(dp1989
g10
(ics475_types
FeatureVector
p1990
(dp1991
g13
(dp1992
I34
F1.0
sI5
F1.0
sI73
F1.0
sI109
F1.0
sI66
F1.0
sI79
F1.0
sI82
F1.0
sI22
F1.0
sI118
F1.0
sI61
F1.0
ssbsg15
g0
(g16
g2
Ntp1993
Rp1994
(dp1995
g15
I1
sbsba(ics475_types
Instance
p1996
(dp1997
g10
(ics475_types
FeatureVector
p1998
(dp1999
g13
(dp2000
I97
F1.0
sI69
F1.0
sI112
F1.0
sI74
F1.0
sI110
F1.0
sI14
F1.0
sI80
F1.0
sI49
F1.0
sI21
F1.0
sI95
F1.0
ssbsg15
g0
(g16
g2
Ntp2001
Rp2002
(dp2003
g15
I-1
sbsba(ics475_types
Instance
p2004
(dp2005
g10
(ics475_types
FeatureVector
p2006
(dp2007
g13
(dp2008
I33
F1.0
sI6
F1.0
sI74
F1.0
sI79
F1.0
sI50
F1.0
sI21
F1.0
sI118
F1.0
sI23
F1.0
sI90
F1.0
sI59
F1.0
ssbsg15
g0
(g16
g2
Ntp2009
Rp2010
(dp2011
g15
I1
sbsba(ics475_types
Instance
p2012
(dp2013
g10
(ics475_types
FeatureVector
p2014
(dp2015
g13
(dp2016
I33
F1.0
sI6
F1.0
sI65
F1.0
sI74
F1.0
sI46
F1.0
sI112
F1.0
sI81
F1.0
sI21
F1.0
sI90
F1.0
sI117
F1.0
ssbsg15
g0
(g16
g2
Ntp2017
Rp2018
(dp2019
g15
I-1
sbsba(ics475_types
Instance
p2020
(dp2021
g10
(ics475_types
FeatureVector
p2022
(dp2023
g13
(dp2024
I96
F1.0
sI65
F1.0
sI5
F1.0
sI60
F1.0
sI111
F1.0
sI18
F1.0
sI20
F1.0
sI73
F1.0
sI89
F1.0
sI28
F1.0
ssbsg15
g0
(g16
g2
Ntp2025
Rp2026
(dp2027
g15
I1
sbsba(ics475_types
Instance
p2028
(dp2029
g10
(ics475_types
FeatureVector
p2030
(dp2031
g13
(dp2032
I65
F1.0
sI34
F1.0
sI6
F1.0
sI9
F1.0
sI111
F1.0
sI80
F1.0
sI49
F1.0
sI22
F1.0
sI89
F1.0
sI62
F1.0
ssbsg15
g0
(g16
g2
Ntp2033
Rp2034
(dp2035
g15
I-1
sbsba(ics475_types
Instance
p2036
(dp2037
g10
(ics475_types
FeatureVector
p2038
(dp2039
g13
(dp2040
I34
F1.0
sI6
F1.0
sI73
F1.0
sI43
F1.0
sI66
F1.0
sI111
F1.0
sI80
F1.0
sI81
F1.0
sI21
F1.0
sI24
F1.0
ssbsg15
g0
(g16
g2
Ntp2041
Rp2042
(dp2043
g15
I-1
sbsba(ics475_types
Instance
p2044
(dp2045
g10
(ics475_types
FeatureVector
p2046
(dp2047
g13
(dp2048
I96
F1.0
sI65
F1.0
sI69
F1.0
sI6
F1.0
sI14
F1.0
sI111
F1.0
sI21
F1.0
sI89
F1.0
sI58
F1.0
sI92
F1.0
ssbsg15
g0
(g16
g2
Ntp2049
Rp2050
(dp2051
g15
I1
sbsba(ics475_types
Instance
p2052
(dp2053
g10
(ics475_types
FeatureVector
p2054
(dp2055
g13
(dp2056
I97
F1.0
sI66
F1.0
sI35
F1.0
sI38
F1.0
sI73
F1.0
sI14
F1.0
sI79
F1.0
sI112
F1.0
sI21
F1.0
sI90
F1.0
ssbsg15
g0
(g16
g2
Ntp2057
Rp2058
(dp2059
g15
I1
sbsba(ics475_types
Instance
p2060
(dp2061
g10
(ics475_types
FeatureVector
p2062
(dp2063
g13
(dp2064
I96
F1.0
sI33
F1.0
sI66
F1.0
sI5
F1.0
sI104
F1.0
sI73
F1.0
sI45
F1.0
sI22
F1.0
sI89
F1.0
sI118
F1.0
ssbsg15
g0
(g16
g2
Ntp2065
Rp2066
(dp2067
g15
I1
sbsba(ics475_types
Instance
p2068
(dp2069
g10
(ics475_types
FeatureVector
p2070
(dp2071
g13
(dp2072
I34
F1.0
sI5
F1.0
sI113
F1.0
sI73
F1.0
sI10
F1.0
sI43
F1.0
sI66
F1.0
sI112
F1.0
sI81
F1.0
sI90
F1.0
ssbsg15
g0
(g16
g2
Ntp2073
Rp2074
(dp2075
g15
I-1
sbsba(ics475_types
Instance
p2076
(dp2077
g10
(ics475_types
FeatureVector
p2078
(dp2079
g13
(dp2080
I96
F1.0
sI33
F1.0
sI38
F1.0
sI65
F1.0
sI9
F1.0
sI115
F1.0
sI22
F1.0
sI56
F1.0
sI89
F1.0
sI60
F1.0
ssbsg15
g0
(g16
g2
Ntp2081
Rp2082
(dp2083
g15
I1
sbsba(ics475_types
Instance
p2084
(dp2085
g10
(ics475_types
FeatureVector
p2086
(dp2087
g13
(dp2088
I65
F1.0
sI6
F1.0
sI72
F1.0
sI9
F1.0
sI111
F1.0
sI22
F1.0
sI73
F1.0
sI90
F1.0
sI60
F1.0
sI95
F1.0
ssbsg15
g0
(g16
g2
Ntp2089
Rp2090
(dp2091
g15
I-1
sbsba(ics475_types
Instance
p2092
(dp2093
g10
(ics475_types
FeatureVector
p2094
(dp2095
g13
(dp2096
I65
F1.0
sI5
F1.0
sI74
F1.0
sI43
F1.0
sI81
F1.0
sI50
F1.0
sI116
F1.0
sI117
F1.0
sI22
F1.0
sI90
F1.0
ssbsg15
g0
(g16
g2
Ntp2097
Rp2098
(dp2099
g15
I-1
sbsba(ics475_types
Instance
p2100
(dp2101
g10
(ics475_types
FeatureVector
p2102
(dp2103
g13
(dp2104
I65
F1.0
sI5
F1.0
sI74
F1.0
sI88
F1.0
sI22
F1.0
sI24
F1.0
sI89
F1.0
sI60
F1.0
sI69
F1.0
sI37
F1.0
ssbsg15
g0
(g16
g2
Ntp2105
Rp2106
(dp2107
g15
I-1
sbsba(ics475_types
Instance
p2108
(dp2109
g10
(ics475_types
FeatureVector
p2110
(dp2111
g13
(dp2112
I33
F1.0
sI65
F1.0
sI39
F1.0
sI112
F1.0
sI74
F1.0
sI80
F1.0
sI22
F1.0
sI23
F1.0
sI89
F1.0
sI60
F1.0
ssbsg15
g0
(g16
g2
Ntp2113
Rp2114
(dp2115
g15
I-1
sbsba(ics475_types
Instance
p2116
(dp2117
g10
(ics475_types
FeatureVector
p2118
(dp2119
g13
(dp2120
I33
F1.0
sI5
F1.0
sI65
F1.0
sI74
F1.0
sI79
F1.0
sI112
F1.0
sI18
F1.0
sI21
F1.0
sI90
F1.0
sI60
F1.0
ssbsg15
g0
(g16
g2
Ntp2121
Rp2122
(dp2123
g15
I1
sbsba(ics475_types
Instance
p2124
(dp2125
g10
(ics475_types
FeatureVector
p2126
(dp2127
g13
(dp2128
I34
F1.0
sI10
F1.0
sI43
F1.0
sI111
F1.0
sI21
F1.0
sI90
F1.0
sI59
F1.0
sI92
F1.0
sI93
F1.0
sI62
F1.0
ssbsg15
g0
(g16
g2
Ntp2129
Rp2130
(dp2131
g15
I1
sbsba(ics475_types
Instance
p2132
(dp2133
g10
(ics475_types
FeatureVector
p2134
(dp2135
g13
(dp2136
I33
F1.0
sI5
F1.0
sI10
F1.0
sI112
F1.0
sI81
F1.0
sI74
F1.0
sI21
F1.0
sI90
F1.0
sI60
F1.0
sI61
F1.0
ssbsg15
g0
(g16
g2
Ntp2137
Rp2138
(dp2139
g15
I1
sbsba(ics475_types
Instance
p2140
(dp2141
g10
(ics475_types
FeatureVector
p2142
(dp2143
g13
(dp2144
I96
F1.0
sI65
F1.0
sI34
F1.0
sI5
F1.0
sI38
F1.0
sI10
F1.0
sI17
F1.0
sI51
F1.0
sI89
F1.0
sI60
F1.0
ssbsg15
g0
(g16
g2
Ntp2145
Rp2146
(dp2147
g15
I1
sbsba(ics475_types
Instance
p2148
(dp2149
g10
(ics475_types
FeatureVector
p2150
(dp2151
g13
(dp2152
I97
F1.0
sI3
F1.0
sI70
F1.0
sI104
F1.0
sI73
F1.0
sI13
F1.0
sI18
F1.0
sI89
F1.0
sI60
F1.0
sI94
F1.0
ssbsg15
g0
(g16
g2
Ntp2153
Rp2154
(dp2155
g15
I-1
sbsba(ics475_types
Instance
p2156
(dp2157
g10
(ics475_types
FeatureVector
p2158
(dp2159
g13
(dp2160
I33
F1.0
sI5
F1.0
sI92
F1.0
sI10
F1.0
sI18
F1.0
sI21
F1.0
sI90
F1.0
sI60
F1.0
sI61
F1.0
sI85
F1.0
ssbsg15
g0
(g16
g2
Ntp2161
Rp2162
(dp2163
g15
I1
sbsba(ics475_types
Instance
p2164
(dp2165
g10
(ics475_types
FeatureVector
p2166
(dp2167
g13
(dp2168
I96
F1.0
sI33
F1.0
sI5
F1.0
sI65
F1.0
sI12
F1.0
sI50
F1.0
sI117
F1.0
sI22
F1.0
sI89
F1.0
sI60
F1.0
ssbsg15
g0
(g16
g2
Ntp2169
Rp2170
(dp2171
g15
I-1
sbsba(ics475_types
Instance
p2172
(dp2173
g10
(ics475_types
FeatureVector
p2174
(dp2175
g13
(dp2176
I112
F1.0
sI34
F1.0
sI6
F1.0
sI73
F1.0
sI43
F1.0
sI66
F1.0
sI80
F1.0
sI21
F1.0
sI89
F1.0
sI117
F1.0
ssbsg15
g0
(g16
g2
Ntp2177
Rp2178
(dp2179
g15
I1
sbsba(ics475_types
Instance
p2180
(dp2181
g10
(ics475_types
FeatureVector
p2182
(dp2183
g13
(dp2184
I96
F1.0
sI59
F1.0
sI37
F1.0
sI70
F1.0
sI10
F1.0
sI49
F1.0
sI89
F1.0
sI27
F1.0
sI92
F1.0
sI74
F1.0
ssbsg15
g0
(g16
g2
Ntp2185
Rp2186
(dp2187
g15
I1
sbsba(ics475_types
Instance
p2188
(dp2189
g10
(ics475_types
FeatureVector
p2190
(dp2191
g13
(dp2192
I33
F1.0
sI66
F1.0
sI5
F1.0
sI10
F1.0
sI111
F1.0
sI80
F1.0
sI22
F1.0
sI89
F1.0
sI59
F1.0
sI92
F1.0
ssbsg15
g0
(g16
g2
Ntp2193
Rp2194
(dp2195
g15
I-1
sbsba(ics475_types
Instance
p2196
(dp2197
g10
(ics475_types
FeatureVector
p2198
(dp2199
g13
(dp2200
I66
F1.0
sI6
F1.0
sI70
F1.0
sI9
F1.0
sI117
F1.0
sI22
F1.0
sI73
F1.0
sI90
F1.0
sI59
F1.0
sI95
F1.0
ssbsg15
g0
(g16
g2
Ntp2201
Rp2202
(dp2203
g15
I1
sbsba(ics475_types
Instance
p2204
(dp2205
g10
(ics475_types
FeatureVector
p2206
(dp2207
g13
(dp2208
I66
F1.0
sI10
F1.0
sI44
F1.0
sI46
F1.0
sI51
F1.0
sI21
F1.0
sI89
F1.0
sI59
F1.0
sI94
F1.0
sI117
F1.0
ssbsg15
g0
(g16
g2
Ntp2209
Rp2210
(dp2211
g15
I1
sbsba(ics475_types
Instance
p2212
(dp2213
g10
(ics475_types
FeatureVector
p2214
(dp2215
g13
(dp2216
I64
F1.0
sI5
F1.0
sI14
F1.0
sI81
F1.0
sI24
F1.0
sI90
F1.0
sI92
F1.0
sI61
F1.0
sI69
F1.0
sI37
F1.0
ssbsg15
g0
(g16
g2
Ntp2217
Rp2218
(dp2219
g15
I1
sbsba(ics475_types
Instance
p2220
(dp2221
g10
(ics475_types
FeatureVector
p2222
(dp2223
g13
(dp2224
I65
F1.0
sI69
F1.0
sI10
F1.0
sI44
F1.0
sI117
F1.0
sI56
F1.0
sI90
F1.0
sI91
F1.0
sI60
F1.0
sI95
F1.0
ssbsg15
g0
(g16
g2
Ntp2225
Rp2226
(dp2227
g15
I-1
sbsba(ics475_types
Instance
p2228
(dp2229
g10
(ics475_types
FeatureVector
p2230
(dp2231
g13
(dp2232
I96
F1.0
sI66
F1.0
sI5
F1.0
sI9
F1.0
sI44
F1.0
sI22
F1.0
sI56
F1.0
sI89
F1.0
sI91
F1.0
sI61
F1.0
ssbsg15
g0
(g16
g2
Ntp2233
Rp2234
(dp2235
g15
I1
sbsba(ics475_types
Instance
p2236
(dp2237
g10
(ics475_types
FeatureVector
p2238
(dp2239
g13
(dp2240
I96
F1.0
sI65
F1.0
sI6
F1.0
sI43
F1.0
sI46
F1.0
sI112
F1.0
sI17
F1.0
sI89
F1.0
sI62
F1.0
sI63
F1.0
ssbsg15
g0
(g16
g2
Ntp2241
Rp2242
(dp2243
g15
I1
sbsba(ics475_types
Instance
p2244
(dp2245
g10
(ics475_types
FeatureVector
p2246
(dp2247
g13
(dp2248
I64
F1.0
sI66
F1.0
sI5
F1.0
sI44
F1.0
sI13
F1.0
sI81
F1.0
sI22
F1.0
sI55
F1.0
sI90
F1.0
sI61
F1.0
ssbsg15
g0
(g16
g2
Ntp2249
Rp2250
(dp2251
g15
I1
sbsba(ics475_types
Instance
p2252
(dp2253
g10
(ics475_types
FeatureVector
p2254
(dp2255
g13
(dp2256
I66
F1.0
sI5
F1.0
sI43
F1.0
sI98
F1.0
sI14
F1.0
sI81
F1.0
sI22
F1.0
sI55
F1.0
sI90
F1.0
sI61
F1.0
ssbsg15
g0
(g16
g2
Ntp2257
Rp2258
(dp2259
g15
I1
sbsba(ics475_types
Instance
p2260
(dp2261
g10
(ics475_types
FeatureVector
p2262
(dp2263
g13
(dp2264
I64
F1.0
sI65
F1.0
sI5
F1.0
sI7
F1.0
sI81
F1.0
sI53
F1.0
sI22
F1.0
sI90
F1.0
sI60
F1.0
sI118
F1.0
ssbsg15
g0
(g16
g2
Ntp2265
Rp2266
(dp2267
g15
I-1
sbsba(ics475_types
Instance
p2268
(dp2269
g10
(ics475_types
FeatureVector
p2270
(dp2271
g13
(dp2272
I96
F1.0
sI66
F1.0
sI5
F1.0
sI38
F1.0
sI116
F1.0
sI21
F1.0
sI89
F1.0
sI59
F1.0
sI28
F1.0
sI69
F1.0
ssbsg15
g0
(g16
g2
Ntp2273
Rp2274
(dp2275
g15
I-1
sbsbasS'_knn'
p2276
I5
sb.