ccopy_reg
_reconstructor
p0
(cPegasosPredictor
PegasosPredictor
p1
c__builtin__
object
p2
Ntp3
Rp4
(dp5
S'_w'
p6
(ics475_types
FeatureVector
p7
(dp8
S'data'
p9
(dp10
I5
F7.067137809187278
sI6
F7.067137809187278
sI9
F7.067137809187285
sI10
F7.067137809187278
sI15
F7.067137809187278
sI19
F7.067137809187285
sI20
F7.067137809187278
sI21
F7.067137809187278
sI23
F7.067137809187278
sI34
F7.067137809187285
sI38
F7.067137809187278
sI43
F7.067137809187278
sI44
F7.067137809187285
sI45
F7.067137809187285
sI50
F7.067137809187278
sI56
F7.067137809187278
sI59
F7.067137809187278
sI60
F7.067137809187278
sI62
F7.067137809187285
sI63
F7.067137809187278
sI65
F7.067137809187278
sI66
F7.067137809187278
sI68
F7.067137809187278
sI69
F7.067137809187278
sI73
F7.067137809187285
sI74
F7.067137809187278
sI78
F7.067137809187278
sI79
F7.067137809187278
sI86
F7.067137809187285
sI87
F7.067137809187278
sI89
F7.067137809187278
sI90
F7.067137809187278
sI95
F7.067137809187285
sI96
F7.067137809187278
sI104
F7.067137809187278
sI109
F7.067137809187278
sI112
F7.067137809187278
sI115
F7.067137809187278
sI117
F7.067137809187278
sI118
F7.067137809187285
ssbsS'_lambda'
p11
F0.0001
sS'_numIter'
p12
I5
sS'_time'
p13
F1416.0
sb.